 win32_handmade

 Timestamp is 56565c84 (Wed Nov 25 17:12:36 2015)

 Preferred load address is 0000000140000000

 Start         Length     Name                   Class
 0001:00000000 000001dbH .text                   CODE
 0001:000001e0 0001215cH .text$mn                CODE
 0001:00012340 00000012H .text$mn$00             CODE
 0001:00012360 00000210H .text$x                 CODE
 0002:00000000 00000300H .idata$5                DATA
 0002:00000300 00000010H .00cfg                  DATA
 0002:00000310 00000008H .CRT$XCA                DATA
 0002:00000318 00000008H .CRT$XCAA               DATA
 0002:00000320 00000008H .CRT$XCZ                DATA
 0002:00000328 00000008H .CRT$XIA                DATA
 0002:00000330 00000008H .CRT$XIAA               DATA
 0002:00000338 00000008H .CRT$XIAC               DATA
 0002:00000340 00000018H .CRT$XIC                DATA
 0002:00000358 00000008H .CRT$XIZ                DATA
 0002:00000360 00000008H .CRT$XPA                DATA
 0002:00000368 00000010H .CRT$XPX                DATA
 0002:00000378 00000008H .CRT$XPXA               DATA
 0002:00000380 00000008H .CRT$XPZ                DATA
 0002:00000388 00000008H .CRT$XTA                DATA
 0002:00000390 00000008H .CRT$XTZ                DATA
 0002:00000398 00000000H .gfids$x                DATA
 0002:000003a0 00007d54H .rdata                  DATA
 0002:000080f8 00000000H .rdata$r                DATA
 0002:000080f8 00000010H .rdata$zETW0            DATA
 0002:00008108 00000077H .rdata$zETW1            DATA
 0002:0000817f 0000002cH .rdata$zETW2            DATA
 0002:000081ab 00000001H .rdata$zETW9            DATA
 0002:000081ac 00000344H .rdata$zzzdbg           DATA
 0002:000084f0 00000008H .rtc$IAA                DATA
 0002:000084f8 00000008H .rtc$IZZ                DATA
 0002:00008500 00000008H .rtc$TAA                DATA
 0002:00008508 00000008H .rtc$TZZ                DATA
 0002:00008510 00000d1cH .xdata                  DATA
 0002:0000922c 00000000H .edata                  DATA
 0002:0000922c 00000064H .idata$2                DATA
 0002:00009290 00000014H .idata$3                DATA
 0002:000092a8 00000300H .idata$4                DATA
 0002:000095a8 000006a6H .idata$6                DATA
 0003:00000000 00000940H .data                   DATA
 0003:00000940 00000000H .data$r                 DATA
 0003:00000940 00001218H .bss                    DATA
 0004:00000000 00001038H .pdata                  DATA

  Address         Publics by Value              Rva+Base               Lib:Object

 0000:00000000       __guard_fids_count         0000000000000000     <absolute>
 0000:00000000       ___safe_se_handler_count   0000000000000000     <absolute>
 0000:00000000       ___safe_se_handler_table   0000000000000000     <absolute>
 0000:00000000       __guard_fids_table         0000000000000000     <absolute>
 0000:00000100       __guard_flags              0000000000000100     <absolute>
 0000:00000000       __ImageBase                0000000140000000     <linker-defined>
 0001:00000000       ?TraceLoggingRegister@__vcrt_trace_logging_provider@@YAJPEBU_TlgProvider_t@1@PEBU_GUID@@P6AX1KE_K2PEAU_EVENT_FILTER_DESCRIPTOR@@PEAX@Z4@Z 0000000140001000 f i libvcruntime:telemetry.obj
 0001:0000007c       ?_TlgEnableCallback@__vcrt_trace_logging_provider@@YAXPEBU_GUID@@KE_K1PEAU_EVENT_FILTER_DESCRIPTOR@@PEAX@Z 000000014000107c f i libvcruntime:telemetry.obj
 0001:00000140       ?_TlgWrite@__vcrt_trace_logging_provider@@YAJPEBU_TlgProvider_t@1@PEFBXPEBU_GUID@@2IPEAU_EVENT_DATA_DESCRIPTOR@@@Z 0000000140001140 f i libvcruntime:telemetry.obj
 0001:000001e0       ?GameUpdateAndRenderStub@@YAXPEAUgame_memory@@PEAUgame_input@@PEAUgame_offscreen_buffer@@@Z 00000001400011e0 f   win32_handmade.obj
 0001:00000200       ?GameGetSoundSamplesStub@@YAXPEAUgame_memory@@PEAUgame_sound_output_buffer@@@Z 0000000140001200 f   win32_handmade.obj
 0001:00000220       WinMain                    0000000140001220 f   win32_handmade.obj
 0001:000017d0       ?XInputGetStateStub@@YAKKPEAU_XINPUT_STATE@@@Z 00000001400027d0 f   win32_handmade.obj
 0001:000017f0       ?XInputSetStateStub@@YAKKPEAU_XINPUT_VIBRATION@@@Z 00000001400027f0 f   win32_handmade.obj
 0001:00001810       ?DEBUGPlatformFreeFileMemory@@YAXPEAX@Z 0000000140002810 f   win32_handmade.obj
 0001:00001840       ?DEBUGPlatformReadEntireFile@@YA?AUdebug_read_file_result@@PEAD@Z 0000000140002840 f   win32_handmade.obj
 0001:00001980       ?DEBUGPlatformWriteEntireFile@@YAHPEADIPEAX@Z 0000000140002980 f   win32_handmade.obj
 0001:000030d0       ??$__vcrt_va_start_verify_argument_type@QEBD@@YAXXZ 00000001400040d0 f i win32_handmade.obj
 0001:000030d0       ??$__vcrt_va_start_verify_argument_type@PEBD@@YAXXZ 00000001400040d0 f i win32_handmade.obj
 0001:000030e0       ??$_snprintf_s@$0BAA@@@YAHAEAY0BAA@D_KPEBDZZ 00000001400040e0 f i win32_handmade.obj
 0001:00003130       ?GetController@@YAPEAUgame_controller_input@@PEAUgame_input@@H@Z 0000000140004130 f i win32_handmade.obj
 0001:00003170       ?SafeTruncateUInt64@@YAI_K@Z 0000000140004170 f i win32_handmade.obj
 0001:000031a0       ?Win32DrawSoundBufferMarker@@YAXPEAUwin32_offscreen_buffer@@PEAUwin32_sound_output@@MHHHKI@Z 00000001400041a0 f i win32_handmade.obj
 0001:00003220       ?Win32GetLastWriteTime@@YA?AU_FILETIME@@PEAD@Z 0000000140004220 f i win32_handmade.obj
 0001:000032b0       ?Win32GetSecondsElapsed@@YAMT_LARGE_INTEGER@@0@Z 00000001400042b0 f i win32_handmade.obj
 0001:000032e0       ?Win32GetWallClock@@YA?AT_LARGE_INTEGER@@XZ 00000001400042e0 f i win32_handmade.obj
 0001:00003300       __local_stdio_printf_options 0000000140004300 f i win32_handmade.obj
 0001:00003310       _vsnprintf_s               0000000140004310 f i win32_handmade.obj
 0001:00003360       _vsnprintf_s_l             0000000140004360 f i win32_handmade.obj
 0001:000033e0       snprintf                   00000001400043e0 f i win32_handmade.obj
 0001:00003440       vsnprintf                  0000000140004440 f i win32_handmade.obj
 0001:000034b4       __GSHandlerCheck           00000001400044b4 f   LIBCMT:_gshandler_.obj
 0001:000034d4       __GSHandlerCheckCommon     00000001400044d4 f   LIBCMT:_gshandler_.obj
 0001:00003540       _alloca_probe              0000000140004540 f   LIBCMT:_chkstk_.obj
 0001:00003540       __chkstk                   0000000140004540 f   LIBCMT:_chkstk_.obj
 0001:000035b0       __security_check_cookie    00000001400045b0 f   LIBCMT:_amdsecgs_.obj
 0001:00003830       WinMainCRTStartup          0000000140004830 f   LIBCMT:exe_winmain.obj
 0001:00003844       __raise_securityfailure    0000000140004844 f   LIBCMT:gs_report.obj
 0001:00003878       __report_gsfailure         0000000140004878 f   LIBCMT:gs_report.obj
 0001:0000394c       __report_rangecheckfailure 000000014000494c f   LIBCMT:gs_report.obj
 0001:00003960       __report_securityfailure   0000000140004960 f   LIBCMT:gs_report.obj
 0001:00003ae0       __scrt_acquire_startup_lock 0000000140004ae0 f   LIBCMT:utility.obj
 0001:00003b1c       __scrt_initialize_crt      0000000140004b1c f   LIBCMT:utility.obj
 0001:00003b68       __scrt_initialize_onexit_tables 0000000140004b68 f   LIBCMT:utility.obj
 0001:00003c34       __scrt_is_nonwritable_in_current_image 0000000140004c34 f   LIBCMT:utility.obj
 0001:00003cd0       __scrt_release_startup_lock 0000000140004cd0 f   LIBCMT:utility.obj
 0001:00003cf4       __scrt_uninitialize_crt    0000000140004cf4 f   LIBCMT:utility.obj
 0001:00003d20       _onexit                    0000000140004d20 f   LIBCMT:utility.obj
 0001:00003d70       atexit                     0000000140004d70 f   LIBCMT:utility.obj
 0001:00003d88       __security_init_cookie     0000000140004d88 f   LIBCMT:gs_support.obj
 0001:00003e34       _get_startup_argv_mode     0000000140004e34 f   LIBCMT:argv_mode.obj
 0001:00003e3c       _get_startup_file_mode     0000000140004e3c f   LIBCMT:file_mode.obj
 0001:00003e44       ?__scrt_initialize_type_info@@YAXXZ 0000000140004e44 f   LIBCMT:tncleanup.obj
 0001:00003e54       __local_stdio_scanf_options 0000000140004e54 f i LIBCMT:default_local_stdio_options.obj
 0001:00003e5c       __scrt_initialize_default_local_stdio_options 0000000140004e5c f   LIBCMT:default_local_stdio_options.obj
 0001:00003e78       __scrt_is_user_matherr_present 0000000140004e78 f   LIBCMT:matherr_detection.obj
 0001:00003e84       __scrt_get_dyn_tls_init_callback 0000000140004e84 f   LIBCMT:dyn_tls_init.obj
 0001:00003e8c       __scrt_get_dyn_tls_dtor_callback 0000000140004e8c f   LIBCMT:dyn_tls_dtor.obj
 0001:00003e94       __crt_debugger_hook        0000000140004e94 f   LIBCMT:utility_desktop.obj
 0001:00003e9c       __scrt_fastfail            0000000140004e9c f   LIBCMT:utility_desktop.obj
 0001:00003fe4       __scrt_get_show_window_mode 0000000140004fe4 f   LIBCMT:utility_desktop.obj
 0001:00004024       _get_startup_new_mode      0000000140005024 f   LIBCMT:new_mode.obj
 0001:00004024       _get_startup_thread_locale_mode 0000000140005024 f   LIBCMT:thread_locale.obj
 0001:00004024       _matherr                   0000000140005024 f   LIBCMT:matherr.obj
 0001:00004024       _get_startup_commit_mode   0000000140005024 f   LIBCMT:commit_mode.obj
 0001:00004024       __scrt_initialize_winrt    0000000140005024 f   LIBCMT:utility_desktop.obj
 0001:00004028       __scrt_is_managed_app      0000000140005028 f   LIBCMT:utility_desktop.obj
 0001:0000407c       __scrt_set_unhandled_exception_filter 000000014000507c f   LIBCMT:utility_desktop.obj
 0001:0000408c       __scrt_unhandled_exception_filter 000000014000508c f   LIBCMT:utility_desktop.obj
 0001:000040c4       _RTC_Initialize            00000001400050c4 f   LIBCMT:_initsect_.obj
 0001:00004110       _RTC_Terminate             0000000140005110 f   LIBCMT:_initsect_.obj
 0001:0000415c       _guard_check_icall         000000014000515c f i LIBCMT:checkcfg.obj
 0001:00004164       __isa_available_init       0000000140005164 f   LIBCMT:_cpu_disp_.obj
 0001:00004328       __scrt_is_ucrt_dll_in_use  0000000140005328 f   LIBCMT:ucrt_detection.obj
 0001:00004334       __except_validate_context_record 0000000140005334 f i libvcruntime:jbcxrval.obj
 0001:00004334       _initialize_denormal_control 0000000140005334 f i LIBCMT:denormal_control.obj
 0001:00004334       _initialize_invalid_parameter_handler 0000000140005334 f i LIBCMT:invalid_parameter_handler.obj
 0001:00004334       _guard_check_icall_nop     0000000140005334 f i LIBCMT:guard_support.obj
 0001:00004340       IsProcessorFeaturePresent  0000000140005340 f   kernel32:KERNEL32.dll
 0001:0000434c       __telemetry_main_invoke_trigger 000000014000534c f   libvcruntime:telemetry.obj
 0001:00004464       __telemetry_main_return_trigger 0000000140005464 f   libvcruntime:telemetry.obj
 0001:0000457c       __vcrt_initialize_telemetry_provider 000000014000557c f   libvcruntime:telemetry.obj
 0001:00004590       __vcrt_uninitialize_telemetry_provider 0000000140005590 f   libvcruntime:telemetry.obj
 0001:000045b0       __C_specific_handler       00000001400055b0 f   libvcruntime:_chandler_.obj
 0001:000047a0       __vcrt_initialize          00000001400057a0 f   libvcruntime:initialization.obj
 0001:000047d8       __vcrt_uninitialize        00000001400057d8 f   libvcruntime:initialization.obj
 0001:00004820       memset                     0000000140005820 f   libvcruntime:memset.obj
 0001:00004b88       __vcrt_EventRegister       0000000140005b88 f   libvcruntime:winapi_downlevel.obj
 0001:00004c0c       __vcrt_EventSetInformation 0000000140005c0c f   libvcruntime:winapi_downlevel.obj
 0001:00004c90       __vcrt_EventUnregister     0000000140005c90 f   libvcruntime:winapi_downlevel.obj
 0001:00004ce4       __vcrt_EventWriteTransfer  0000000140005ce4 f   libvcruntime:winapi_downlevel.obj
 0001:00004d7c       __vcrt_FlsAlloc            0000000140005d7c f   libvcruntime:winapi_downlevel.obj
 0001:00004dd0       __vcrt_FlsFree             0000000140005dd0 f   libvcruntime:winapi_downlevel.obj
 0001:00004e24       __vcrt_FlsSetValue         0000000140005e24 f   libvcruntime:winapi_downlevel.obj
 0001:00004e8c       __vcrt_InitializeCriticalSectionEx 0000000140005e8c f   libvcruntime:winapi_downlevel.obj
 0001:00004f04       __vcrt_initialize_winapi_thunks 0000000140005f04 f   libvcruntime:winapi_downlevel.obj
 0001:00004f3c       __vcrt_uninitialize_winapi_thunks 0000000140005f3c f   libvcruntime:winapi_downlevel.obj
 0001:00004f90       _local_unwind              0000000140005f90 f   libvcruntime:_jmpuwind_.obj
 0001:00004fc0       _NLG_Notify                0000000140005fc0 f   libvcruntime:_jmpuwind_.obj
 0001:00004fe0       __NLG_Dispatch2            0000000140005fe0 f   libvcruntime:_jmpuwind_.obj
 0001:00004ff0       __NLG_Return2              0000000140005ff0 f   libvcruntime:_jmpuwind_.obj
 0001:00004ff4       __vcrt_freefls             0000000140005ff4 f   libvcruntime:per_thread_data.obj
 0001:00005014       __vcrt_initialize_ptd      0000000140006014 f   libvcruntime:per_thread_data.obj
 0001:00005054       __vcrt_uninitialize_ptd    0000000140006054 f   libvcruntime:per_thread_data.obj
 0001:00005078       __vcrt_initialize_locks    0000000140006078 f   libvcruntime:locks.obj
 0001:000050c0       __vcrt_uninitialize_locks  00000001400060c0 f   libvcruntime:locks.obj
 0001:000050f8       __vcrt_initialize_pure_virtual_call_handler 00000001400060f8 f   libvcruntime:purevirt_data.obj
 0001:000052c4       ??$ensure_buffer_is_big_enough@D@formatting_buffer@__crt_stdio_output@@QEAA_N_K@Z 00000001400062c4 f i libucrt:output.obj
 0001:00005370       ??$is_wide_character_specifier@D@__crt_stdio_output@@YA_N_KDW4length_modifier@0@@Z 0000000140006370 f i libucrt:output.obj
 0001:000053a0       ??$type_case_integer_parse_into_buffer@I@?$output_processor@DV?$string_output_adapter@D@__crt_stdio_output@@V?$format_validation_base@DV?$string_output_adapter@D@__crt_stdio_output@@@2@@__crt_stdio_output@@AEAAXII_N@Z 00000001400063a0 f i libucrt:output.obj
 0001:000053a0       ??$type_case_integer_parse_into_buffer@I@?$output_processor@DV?$string_output_adapter@D@__crt_stdio_output@@V?$standard_base@DV?$string_output_adapter@D@__crt_stdio_output@@@2@@__crt_stdio_output@@AEAAXII_N@Z 00000001400063a0 f i libucrt:output.obj
 0001:0000543c       ??$type_case_integer_parse_into_buffer@_K@?$output_processor@DV?$string_output_adapter@D@__crt_stdio_output@@V?$standard_base@DV?$string_output_adapter@D@__crt_stdio_output@@@2@@__crt_stdio_output@@AEAAX_KI_N@Z 000000014000643c f i libucrt:output.obj
 0001:0000543c       ??$type_case_integer_parse_into_buffer@_K@?$output_processor@DV?$string_output_adapter@D@__crt_stdio_output@@V?$format_validation_base@DV?$string_output_adapter@D@__crt_stdio_output@@@2@@__crt_stdio_output@@AEAAX_KI_N@Z 000000014000643c f i libucrt:output.obj
 0001:000054d8       ??$write_multiple_characters@V?$string_output_adapter@D@__crt_stdio_output@@D@__crt_stdio_output@@YAXAEBV?$string_output_adapter@D@0@DHQEAH@Z 00000001400064d8 f i libucrt:output.obj
 0001:00005534       ??0?$output_processor@DV?$string_output_adapter@D@__crt_stdio_output@@V?$format_validation_base@DV?$string_output_adapter@D@__crt_stdio_output@@@2@@__crt_stdio_output@@QEAA@AEBV?$string_output_adapter@D@1@_KQEBDQEAU__crt_locale_pointers@@QEAD@Z 0000000140006534 f i libucrt:output.obj
 0001:00005534       ??0?$output_processor@DV?$string_output_adapter@D@__crt_stdio_output@@V?$standard_base@DV?$string_output_adapter@D@__crt_stdio_output@@@2@@__crt_stdio_output@@QEAA@AEBV?$string_output_adapter@D@1@_KQEBDQEAU__crt_locale_pointers@@QEAD@Z 0000000140006534 f i libucrt:output.obj
 0001:000055b0       ??0_LocaleUpdate@@QEAA@QEAU__crt_locale_pointers@@@Z 00000001400065b0 f i libucrt:output.obj
 0001:00005640       ?force_decimal_point@__crt_stdio_output@@YAXPEADQEAU__crt_locale_pointers@@@Z 0000000140006640 f i libucrt:output.obj
 0001:000056b0       ?parse_int_from_format_string@?$output_processor@DV?$string_output_adapter@D@__crt_stdio_output@@V?$standard_base@DV?$string_output_adapter@D@__crt_stdio_output@@@2@@__crt_stdio_output@@AEAA_NQEAH@Z 00000001400066b0 f i libucrt:output.obj
 0001:000056b0       ?parse_int_from_format_string@?$output_processor@DV?$string_output_adapter@D@__crt_stdio_output@@V?$format_validation_base@DV?$string_output_adapter@D@__crt_stdio_output@@@2@@__crt_stdio_output@@AEAA_NQEAH@Z 00000001400066b0 f i libucrt:output.obj
 0001:00005734       ?process@?$output_processor@DV?$string_output_adapter@D@__crt_stdio_output@@V?$format_validation_base@DV?$string_output_adapter@D@__crt_stdio_output@@@2@@__crt_stdio_output@@QEAAHXZ 0000000140006734 f i libucrt:output.obj
 0001:00005948       ?process@?$output_processor@DV?$string_output_adapter@D@__crt_stdio_output@@V?$standard_base@DV?$string_output_adapter@D@__crt_stdio_output@@@2@@__crt_stdio_output@@QEAAHXZ 0000000140006948 f i libucrt:output.obj
 0001:00005b4c       ?state_case_normal@?$output_processor@DV?$string_output_adapter@D@__crt_stdio_output@@V?$format_validation_base@DV?$string_output_adapter@D@__crt_stdio_output@@@2@@__crt_stdio_output@@AEAA_NXZ 0000000140006b4c f i libucrt:output.obj
 0001:00005b4c       ?state_case_normal@?$output_processor@DV?$string_output_adapter@D@__crt_stdio_output@@V?$standard_base@DV?$string_output_adapter@D@__crt_stdio_output@@@2@@__crt_stdio_output@@AEAA_NXZ 0000000140006b4c f i libucrt:output.obj
 0001:00005bc0       ?state_case_normal_tchar@?$output_processor@DV?$string_output_adapter@D@__crt_stdio_output@@V?$format_validation_base@DV?$string_output_adapter@D@__crt_stdio_output@@@2@@__crt_stdio_output@@AEAA_ND@Z 0000000140006bc0 f i libucrt:output.obj
 0001:00005bc0       ?state_case_normal_tchar@?$output_processor@DV?$string_output_adapter@D@__crt_stdio_output@@V?$standard_base@DV?$string_output_adapter@D@__crt_stdio_output@@@2@@__crt_stdio_output@@AEAA_ND@Z 0000000140006bc0 f i libucrt:output.obj
 0001:00005c58       ?state_case_size@?$output_processor@DV?$string_output_adapter@D@__crt_stdio_output@@V?$standard_base@DV?$string_output_adapter@D@__crt_stdio_output@@@2@@__crt_stdio_output@@AEAA_NXZ 0000000140006c58 f i libucrt:output.obj
 0001:00005c58       ?state_case_size@?$output_processor@DV?$string_output_adapter@D@__crt_stdio_output@@V?$format_validation_base@DV?$string_output_adapter@D@__crt_stdio_output@@@2@@__crt_stdio_output@@AEAA_NXZ 0000000140006c58 f i libucrt:output.obj
 0001:00005dd4       ?state_case_type@?$output_processor@DV?$string_output_adapter@D@__crt_stdio_output@@V?$format_validation_base@DV?$string_output_adapter@D@__crt_stdio_output@@@2@@__crt_stdio_output@@AEAA_NXZ 0000000140006dd4 f i libucrt:output.obj
 0001:00005dd4       ?state_case_type@?$output_processor@DV?$string_output_adapter@D@__crt_stdio_output@@V?$standard_base@DV?$string_output_adapter@D@__crt_stdio_output@@@2@@__crt_stdio_output@@AEAA_NXZ 0000000140006dd4 f i libucrt:output.obj
 0001:00006050       ?type_case_Z@?$output_processor@DV?$string_output_adapter@D@__crt_stdio_output@@V?$standard_base@DV?$string_output_adapter@D@__crt_stdio_output@@@2@@__crt_stdio_output@@AEAA_NXZ 0000000140007050 f i libucrt:output.obj
 0001:00006050       ?type_case_Z@?$output_processor@DV?$string_output_adapter@D@__crt_stdio_output@@V?$format_validation_base@DV?$string_output_adapter@D@__crt_stdio_output@@@2@@__crt_stdio_output@@AEAA_NXZ 0000000140007050 f i libucrt:output.obj
 0001:000060d0       ?type_case_a@?$output_processor@DV?$string_output_adapter@D@__crt_stdio_output@@V?$format_validation_base@DV?$string_output_adapter@D@__crt_stdio_output@@@2@@__crt_stdio_output@@AEAA_NXZ 00000001400070d0 f i libucrt:output.obj
 0001:000060d0       ?type_case_a@?$output_processor@DV?$string_output_adapter@D@__crt_stdio_output@@V?$standard_base@DV?$string_output_adapter@D@__crt_stdio_output@@@2@@__crt_stdio_output@@AEAA_NXZ 00000001400070d0 f i libucrt:output.obj
 0001:000062ec       ?type_case_c_tchar@?$output_processor@DV?$string_output_adapter@D@__crt_stdio_output@@V?$format_validation_base@DV?$string_output_adapter@D@__crt_stdio_output@@@2@@__crt_stdio_output@@AEAA_ND@Z 00000001400072ec f i libucrt:output.obj
 0001:000062ec       ?type_case_c_tchar@?$output_processor@DV?$string_output_adapter@D@__crt_stdio_output@@V?$standard_base@DV?$string_output_adapter@D@__crt_stdio_output@@@2@@__crt_stdio_output@@AEAA_ND@Z 00000001400072ec f i libucrt:output.obj
 0001:000063a0       ?type_case_integer@?$output_processor@DV?$string_output_adapter@D@__crt_stdio_output@@V?$format_validation_base@DV?$string_output_adapter@D@__crt_stdio_output@@@2@@__crt_stdio_output@@AEAA_NI_N@Z 00000001400073a0 f i libucrt:output.obj
 0001:000063a0       ?type_case_integer@?$output_processor@DV?$string_output_adapter@D@__crt_stdio_output@@V?$standard_base@DV?$string_output_adapter@D@__crt_stdio_output@@@2@@__crt_stdio_output@@AEAA_NI_N@Z 00000001400073a0 f i libucrt:output.obj
 0001:00006540       ?type_case_n@?$output_processor@DV?$string_output_adapter@D@__crt_stdio_output@@V?$standard_base@DV?$string_output_adapter@D@__crt_stdio_output@@@2@@__crt_stdio_output@@AEAA_NXZ 0000000140007540 f i libucrt:output.obj
 0001:00006540       ?type_case_n@?$output_processor@DV?$string_output_adapter@D@__crt_stdio_output@@V?$format_validation_base@DV?$string_output_adapter@D@__crt_stdio_output@@@2@@__crt_stdio_output@@AEAA_NXZ 0000000140007540 f i libucrt:output.obj
 0001:0000661c       ?type_case_s@?$output_processor@DV?$string_output_adapter@D@__crt_stdio_output@@V?$standard_base@DV?$string_output_adapter@D@__crt_stdio_output@@@2@@__crt_stdio_output@@AEAA_NXZ 000000014000761c f i libucrt:output.obj
 0001:0000661c       ?type_case_s@?$output_processor@DV?$string_output_adapter@D@__crt_stdio_output@@V?$format_validation_base@DV?$string_output_adapter@D@__crt_stdio_output@@@2@@__crt_stdio_output@@AEAA_NXZ 000000014000761c f i libucrt:output.obj
 0001:000066ac       ?write_stored_string_tchar@?$output_processor@DV?$string_output_adapter@D@__crt_stdio_output@@V?$standard_base@DV?$string_output_adapter@D@__crt_stdio_output@@@2@@__crt_stdio_output@@AEAA_ND@Z 00000001400076ac f i libucrt:output.obj
 0001:000066ac       ?write_stored_string_tchar@?$output_processor@DV?$string_output_adapter@D@__crt_stdio_output@@V?$format_validation_base@DV?$string_output_adapter@D@__crt_stdio_output@@@2@@__crt_stdio_output@@AEAA_ND@Z 00000001400076ac f i libucrt:output.obj
 0001:00006784       ?write_string@?$string_output_adapter@D@__crt_stdio_output@@QEBAXQEBDHQEAH1@Z 0000000140007784 f i libucrt:output.obj
 0001:00006840       __stdio_common_vsnprintf_s 0000000140007840 f   libucrt:output.obj
 0001:0000699c       __stdio_common_vsprintf    000000014000799c f   libucrt:output.obj
 0001:00006bd0       _seh_filter_exe            0000000140007bd0 f   libucrt:exception_filter.obj
 0001:00006d60       _query_app_type            0000000140007d60 f   libucrt:report_runtime_error.obj
 0001:00006d68       _set_app_type              0000000140007d68 f   libucrt:report_runtime_error.obj
 0001:00006d70       __acrt_has_user_matherr    0000000140007d70 f   libucrt:matherr.obj
 0001:00006d90       __acrt_initialize_user_matherr 0000000140007d90 f   libucrt:matherr.obj
 0001:00006d98       __acrt_invoke_user_matherr 0000000140007d98 f   libucrt:matherr.obj
 0001:00006de0       __setusermatherr           0000000140007de0 f   libucrt:matherr.obj
 0001:00006fc4       __acrt_allocate_buffer_for_argv 0000000140007fc4 f   libucrt:argv_parsing.obj
 0001:00007028       _configure_narrow_argv     0000000140008028 f   libucrt:argv_parsing.obj
 0001:00007384       __dcrt_uninitialize_environments_nolock 0000000140008384 f   libucrt:environment_initialization.obj
 0001:000073bc       _initialize_narrow_environment 00000001400083bc f   libucrt:environment_initialization.obj
 0001:000073c4       _get_narrow_winmain_command_line 00000001400083c4 f   libucrt:argv_winmain.obj
 0001:00007434       _initterm                  0000000140008434 f   libucrt:initterm.obj
 0001:000074ac       _initterm_e                00000001400084ac f   libucrt:initterm.obj
 0001:00007728       __acrt_initialize_thread_local_exit_callback 0000000140008728 f   libucrt:exit.obj
 0001:00007730       _c_exit                    0000000140008730 f   libucrt:exit.obj
 0001:00007740       _cexit                     0000000140008740 f   libucrt:exit.obj
 0001:00007750       _exit                      0000000140008750 f   libucrt:exit.obj
 0001:0000775c       _register_thread_local_exe_atexit_callback 000000014000875c f   libucrt:exit.obj
 0001:000077a0       exit                       00000001400087a0 f   libucrt:exit.obj
 0001:000077ac       _set_fmode                 00000001400087ac f   libucrt:setmode.obj
 0001:000077ec       __acrt_set_locale_changed  00000001400087ec f   libucrt:wsetlocale.obj
 0001:000077f8       __acrt_uninitialize_locale 00000001400087f8 f   libucrt:wsetlocale.obj
 0001:00007840       _configthreadlocale        0000000140008840 f   libucrt:wsetlocale.obj
 0001:000078ac       _query_new_mode            00000001400088ac f   libucrt:new_mode.obj
 0001:000078b4       _set_new_mode              00000001400088b4 f   libucrt:new_mode.obj
 0001:000078e0       __p__commode               00000001400088e0 f   libucrt:ncommode.obj
 0001:000078e8       ??$?RV<lambda_b8c45f8f788dd370798f47cfe8ac3a86>@@AEAV<lambda_4e60a939b0d047cfe11ddc22648dfba9>@@V<lambda_332c3edc96d0294ec56c57d38c1cdfd5>@@@?$__crt_seh_guarded_call@H@@QEAAH$$QEAV<lambda_b8c45f8f788dd370798f47cfe8ac3a86>@@AEAV<lambda_4e60a939b0d047cfe11ddc22648dfba9>@@$$QEAV<lambda_332c3edc96d0294ec56c57d38c1cdfd5>@@@Z 00000001400088e8 f i libucrt:onexit.obj
 0001:00007924       ??$?RV<lambda_e24bbb7b643b32fcea6fa61b31d4c984>@@AEAV<lambda_275893d493268fdec8709772e3fcec0e>@@V<lambda_9d71df4d7cf3f480f8d633942495c3b0>@@@?$__crt_seh_guarded_call@H@@QEAAH$$QEAV<lambda_e24bbb7b643b32fcea6fa61b31d4c984>@@AEAV<lambda_275893d493268fdec8709772e3fcec0e>@@$$QEAV<lambda_9d71df4d7cf3f480f8d633942495c3b0>@@@Z 0000000140008924 f i libucrt:onexit.obj
 0001:00007ca0       _crt_atexit                0000000140008ca0 f   libucrt:onexit.obj
 0001:00007cb0       _execute_onexit_table      0000000140008cb0 f   libucrt:onexit.obj
 0001:00007cec       _initialize_onexit_table   0000000140008cec f   libucrt:onexit.obj
 0001:00007d2c       _register_onexit_function  0000000140008d2c f   libucrt:onexit.obj
 0001:00007dbc       __acrt_uninitialize_command_line 0000000140008dbc f   libucrt:argv_data.obj
 0001:00007eac       __acrt_initialize          0000000140008eac f   libucrt:initialization.obj
 0001:00007ec0       __acrt_uninitialize        0000000140008ec0 f   libucrt:initialization.obj
 0001:00007ed4       terminate                  0000000140008ed4 f   libucrt:terminate.obj
 0001:00007efc       _free_base                 0000000140008efc f   libucrt:free_base.obj
 0001:00007f3c       _malloc_base               0000000140008f3c f   libucrt:malloc_base.obj
 0001:00007f9c       strcpy_s                   0000000140008f9c f   libucrt:strcpy_s.obj
 0001:00007ffc       abort                      0000000140008ffc f   libucrt:abort.obj
 0001:00008054       _calloc_base               0000000140009054 f   libucrt:calloc_base.obj
 0001:000080cc       ??$is_overflow_condition@K@__crt_strtox@@YA_NIK@Z 00000001400090cc f i libucrt:atox.obj
 0001:000080f8       ??$parse_integer@KV?$c_string_character_source@D@__crt_strtox@@@__crt_strtox@@YAKQEAU__crt_locale_pointers@@V?$c_string_character_source@D@0@H_N@Z 00000001400090f8 f i libucrt:atox.obj
 0001:0000840c       __acrt_call_reportfault    000000014000940c f   libucrt:invalid_parameter.obj
 0001:00008568       __acrt_initialize_invalid_parameter_handler 0000000140009568 f   libucrt:invalid_parameter.obj
 0001:00008570       _invalid_parameter         0000000140009570 f   libucrt:invalid_parameter.obj
 0001:00008618       _invalid_parameter_noinfo  0000000140009618 f   libucrt:invalid_parameter.obj
 0001:00008638       _invoke_watson             0000000140009638 f   libucrt:invalid_parameter.obj
 0001:00008680       isdigit                    0000000140009680 f i libucrt:_ctype.obj
 0001:00008744       _tolower_l                 0000000140009744 f   libucrt:tolower_toupper.obj
 0001:00008884       tolower                    0000000140009884 f   libucrt:tolower_toupper.obj
 0001:000088b0       __acrt_errno_from_os_error 00000001400098b0 f   libucrt:errno.obj
 0001:000088f8       __acrt_errno_map_os_error  00000001400098f8 f   libucrt:errno.obj
 0001:00008948       __doserrno                 0000000140009948 f   libucrt:errno.obj
 0001:00008968       _errno                     0000000140009968 f   libucrt:errno.obj
 0001:00008988       ??$make_c_string_character_source@DPEAPEAD@__crt_strtox@@YA?AV?$c_string_character_source@D@0@QEBDQEAPEAD@Z 0000000140009988 f i libucrt:strtox.obj
 0001:0000899c       strtol                     000000014000999c f   libucrt:strtox.obj
 0001:000089cc       _mbtowc_l                  00000001400099cc f   libucrt:mbtowc.obj
 0001:00008b14       mbtowc                     0000000140009b14 f   libucrt:mbtowc.obj
 0001:00008b1c       _wctomb_s_l                0000000140009b1c f   libucrt:wctomb.obj
 0001:00008ca0       wctomb_s                   0000000140009ca0 f   libucrt:wctomb.obj
 0001:00008cb4       strnlen                    0000000140009cb4 f   libucrt:strnlen.obj
 0001:00008e10       wcsnlen                    0000000140009e10 f   libucrt:strnlen.obj
 0001:00009000       ??$?RV<lambda_46352004c1216016012b18bd6f87e700>@@AEAV<lambda_3bd07e1a1191394380780325891bf33f>@@V<lambda_334532d3f185bcaa59b5be82d7d22bff>@@@?$__crt_seh_guarded_call@X@@QEAAX$$QEAV<lambda_46352004c1216016012b18bd6f87e700>@@AEAV<lambda_3bd07e1a1191394380780325891bf33f>@@$$QEAV<lambda_334532d3f185bcaa59b5be82d7d22bff>@@@Z 000000014000a000 f i libucrt:per_thread_data.obj
 0001:00009060       ??$?RV<lambda_5e887d1dcbef67a5eb4283622ba103bf>@@AEAV<lambda_4466841279450cc726390878d4a41900>@@V<lambda_341c25c0346d94847f1f3c463c57e077>@@@?$__crt_seh_guarded_call@X@@QEAAX$$QEAV<lambda_5e887d1dcbef67a5eb4283622ba103bf>@@AEAV<lambda_4466841279450cc726390878d4a41900>@@$$QEAV<lambda_341c25c0346d94847f1f3c463c57e077>@@@Z 000000014000a060 f i libucrt:per_thread_data.obj
 0001:000090a8       ??$?RV<lambda_72d1df2b273a38828b1ce30cbf4cdab5>@@AEAV<lambda_876a65b173b8412d3a47c70a915b0cf4>@@V<lambda_41932305e351933ebe8f8be3ed8bb5dc>@@@?$__crt_seh_guarded_call@X@@QEAAX$$QEAV<lambda_72d1df2b273a38828b1ce30cbf4cdab5>@@AEAV<lambda_876a65b173b8412d3a47c70a915b0cf4>@@$$QEAV<lambda_41932305e351933ebe8f8be3ed8bb5dc>@@@Z 000000014000a0a8 f i libucrt:per_thread_data.obj
 0001:000090e8       ??$?RV<lambda_fb3a7dec4e47f37f22dae91bb15c9095>@@AEAV<lambda_698284760c8add0bfb0756c19673e34b>@@V<lambda_dfb8eca1e75fef3034a8fb18dd509707>@@@?$__crt_seh_guarded_call@X@@QEAAX$$QEAV<lambda_fb3a7dec4e47f37f22dae91bb15c9095>@@AEAV<lambda_698284760c8add0bfb0756c19673e34b>@@$$QEAV<lambda_dfb8eca1e75fef3034a8fb18dd509707>@@@Z 000000014000a0e8 f i libucrt:per_thread_data.obj
 0001:00009378       __acrt_getptd              000000014000a378 f   libucrt:per_thread_data.obj
 0001:0000940c       __acrt_getptd_noexit       000000014000a40c f   libucrt:per_thread_data.obj
 0001:000094ac       __acrt_initialize_ptd      000000014000a4ac f   libucrt:per_thread_data.obj
 0001:000094e8       __acrt_uninitialize_ptd    000000014000a4e8 f   libucrt:per_thread_data.obj
 0001:0000950c       __acrt_update_locale_info  000000014000a50c f   libucrt:locale_update.obj
 0001:00009540       __acrt_update_multibyte_info 000000014000a540 f   libucrt:locale_update.obj
 0001:00009574       ?__acrt_fp_classify@@YA?AW4__acrt_fp_class@@AEBN@Z 000000014000a574 f i libucrt:cvt.obj
 0001:00009fac       __acrt_fp_format           000000014000afac f   libucrt:cvt.obj
 0001:0000a1f0       _fileno                    000000014000b1f0 f   libucrt:fileno.obj
 0001:0000a218       __acrt_initialize_stdio    000000014000b218 f   libucrt:_file.obj
 0001:0000a338       __acrt_uninitialize_stdio  000000014000b338 f   libucrt:_file.obj
 0001:0000a394       _lock_file                 000000014000b394 f   libucrt:_file.obj
 0001:0000a3a0       _unlock_file               000000014000b3a0 f   libucrt:_file.obj
 0001:0000a3ac       _get_printf_count_output   000000014000b3ac f   libucrt:printf_count_output.obj
 0001:0000a5ac       __acrt_initialize_lowio    000000014000b5ac f   libucrt:ioinit.obj
 0001:0000a5e8       __acrt_uninitialize_lowio  000000014000b5e8 f   libucrt:ioinit.obj
 0001:0000ab04       ?expand_if_necessary@?$argument_list@D@?A0x7b96f60e@@AEAAHXZ 000000014000bb04 f i libucrt:argv_wildcards.obj
 0001:0000abcc       __acrt_expand_narrow_argv_wildcards 000000014000bbcc f   libucrt:argv_wildcards.obj
 0001:0000abd4       ??$?RV<lambda_99476a1ad63dd22509b5d3e65b0ffc95>@@AEAV<lambda_ad1ced32f4ac17aa236e5ef05d6b3b7c>@@V<lambda_f7424dd8d45958661754dc4f2697e9c3>@@@?$__crt_seh_guarded_call@X@@QEAAX$$QEAV<lambda_99476a1ad63dd22509b5d3e65b0ffc95>@@AEAV<lambda_ad1ced32f4ac17aa236e5ef05d6b3b7c>@@$$QEAV<lambda_f7424dd8d45958661754dc4f2697e9c3>@@@Z 000000014000bbd4 f i libucrt:mbctype.obj
 0001:0000b2d0       __acrt_initialize_multibyte 000000014000c2d0 f   libucrt:mbctype.obj
 0001:0000b2f8       __acrt_update_thread_multibyte_data 000000014000c2f8 f   libucrt:mbctype.obj
 0001:0000b3b8       _setmbcp_nolock            000000014000c3b8 f   libucrt:mbctype.obj
 0001:0000b6d8       _ismbblead                 000000014000c6d8 f   libucrt:ismbbyte.obj
 0001:0000b6ec       __acrt_initialize_command_line 000000014000c6ec f   libucrt:argv_data.obj
 0001:0000b714       __dcrt_get_narrow_environment_from_os 000000014000c714 f   libucrt:get_environment_from_os.obj
 0001:0000b818       __acrt_initialize_locks    000000014000c818 f   libucrt:locks.obj
 0001:0000b860       __acrt_lock                000000014000c860 f   libucrt:locks.obj
 0001:0000b87c       __acrt_uninitialize_locks  000000014000c87c f   libucrt:locks.obj
 0001:0000b8b4       __acrt_unlock              000000014000c8b4 f   libucrt:locks.obj
 0001:0000ba70       __acrt_FlsAlloc            000000014000ca70 f   libucrt:winapi_thunks.obj
 0001:0000bac8       __acrt_FlsFree             000000014000cac8 f   libucrt:winapi_thunks.obj
 0001:0000bb20       __acrt_FlsGetValue         000000014000cb20 f   libucrt:winapi_thunks.obj
 0001:0000bb78       __acrt_FlsSetValue         000000014000cb78 f   libucrt:winapi_thunks.obj
 0001:0000bbe0       __acrt_InitializeCriticalSectionEx 000000014000cbe0 f   libucrt:winapi_thunks.obj
 0001:0000bc58       __acrt_LCMapStringEx       000000014000cc58 f   libucrt:winapi_thunks.obj
 0001:0000bd48       __acrt_LocaleNameToLCID    000000014000cd48 f   libucrt:winapi_thunks.obj
 0001:0000bdb0       __acrt_initialize_winapi_thunks 000000014000cdb0 f   libucrt:winapi_thunks.obj
 0001:0000bde8       __acrt_is_packaged_app     000000014000cde8 f   libucrt:winapi_thunks.obj
 0001:0000be70       __acrt_uninitialize_winapi_thunks 000000014000ce70 f   libucrt:winapi_thunks.obj
 0001:0000beb4       __acrt_lowio_create_handle_array 000000014000ceb4 f   libucrt:osfinfo.obj
 0001:0000bf4c       __acrt_lowio_destroy_handle_array 000000014000cf4c f   libucrt:osfinfo.obj
 0001:0000bf9c       __acrt_lowio_ensure_fh_exists 000000014000cf9c f   libucrt:osfinfo.obj
 0001:0000c054       __acrt_lowio_lock_fh       000000014000d054 f   libucrt:osfinfo.obj
 0001:0000c078       __acrt_lowio_unlock_fh     000000014000d078 f   libucrt:osfinfo.obj
 0001:0000c09c       _free_osfhnd               000000014000d09c f   libucrt:osfinfo.obj
 0001:0000c158       _get_osfhandle             000000014000d158 f   libucrt:osfinfo.obj
 0001:0000c1d0       __acrt_locale_free_monetary 000000014000d1d0 f   libucrt:initmon.obj
 0001:0000c2dc       __acrt_locale_free_numeric 000000014000d2dc f   libucrt:initnum.obj
 0001:0000c3a0       __acrt_locale_free_time    000000014000d3a0 f   libucrt:inittime.obj
 0001:0000c4a8       __pctype_func              000000014000d4a8 f   libucrt:ctype.obj
 0001:0000c4d8       __acrt_GetStringTypeA      000000014000d4d8 f   libucrt:getstringtypea.obj
 0001:0000c68c       __acrt_add_locale_ref      000000014000d68c f   libucrt:locale_refcounting.obj
 0001:0000c718       __acrt_free_locale         000000014000d718 f   libucrt:locale_refcounting.obj
 0001:0000c890       __acrt_locale_add_lc_time_reference 000000014000d890 f   libucrt:locale_refcounting.obj
 0001:0000c8b8       __acrt_locale_free_lc_time_if_unreferenced 000000014000d8b8 f   libucrt:locale_refcounting.obj
 0001:0000c8f0       __acrt_locale_release_lc_time_reference 000000014000d8f0 f   libucrt:locale_refcounting.obj
 0001:0000c918       __acrt_release_locale_ref  000000014000d918 f   libucrt:locale_refcounting.obj
 0001:0000c9c0       __acrt_update_thread_locale_data 000000014000d9c0 f   libucrt:locale_refcounting.obj
 0001:0000ca30       _updatetlocinfoEx_nolock   000000014000da30 f   libucrt:locale_refcounting.obj
 0001:0000ca98       _recalloc                  000000014000da98 f   libucrt:recalloc.obj
 0001:0000caa0       _recalloc_base             000000014000daa0 f   libucrt:recalloc.obj
 0001:0000cb38       __acrt_initialize_heap     000000014000db38 f   libucrt:heap_handle.obj
 0001:0000cb54       __acrt_uninitialize_heap   000000014000db54 f   libucrt:heap_handle.obj
 0001:0000cb60       __acrt_execute_initializers 000000014000db60 f   libucrt:shared_initialization.obj
 0001:0000cbf4       __acrt_execute_uninitializers 000000014000dbf4 f   libucrt:shared_initialization.obj
 0001:0000cc44       __acrt_initialize_new_handler 000000014000dc44 f   libucrt:new_handler.obj
 0001:0000cc4c       _callnewh                  000000014000dc4c f   libucrt:new_handler.obj
 0001:0000cc8c       _query_new_handler         000000014000dc8c f   libucrt:new_handler.obj
 0001:0000ccc0       ??$?RV<lambda_c36588078e9f5dfd39652860aa6b3aaf>@@AEAV<lambda_ec61778202f4f5fc7e7711acc23c3bca>@@V<lambda_dc9d2797ccde5d239b4a0efae8ebd7db>@@@?$__crt_seh_guarded_call@P6AXH@Z@@QEAAP6AXH@Z$$QEAV<lambda_c36588078e9f5dfd39652860aa6b3aaf>@@AEAV<lambda_ec61778202f4f5fc7e7711acc23c3bca>@@$$QEAV<lambda_dc9d2797ccde5d239b4a0efae8ebd7db>@@@Z 000000014000dcc0 f i libucrt:signal.obj
 0001:0000cd08       __acrt_get_sigabrt_handler 000000014000dd08 f   libucrt:signal.obj
 0001:0000cd38       __acrt_initialize_signal_handlers 000000014000dd38 f   libucrt:signal.obj
 0001:0000cd58       raise                      000000014000dd58 f   libucrt:signal.obj
 0001:0000cff4       _isctype_l                 000000014000dff4 f   libucrt:isctype.obj
 0001:0000d104       _isleadbyte_l              000000014000e104 f i libucrt:_wctype.obj
 0001:0000d4a0       __acrt_LCMapStringA        000000014000e4a0 f   libucrt:lcmapstringa.obj
 0001:0000d538       __acrt_fp_strflt_to_string 000000014000e538 f   libucrt:_fptostr.obj
 0001:0000d600       ?divide@__crt_strtox@@YA_KAEAUbig_integer@1@AEBU21@@Z 000000014000e600 f i libucrt:cfout.obj
 0001:0000dad0       __acrt_fltout              000000014000ead0 f   libucrt:cfout.obj
 0001:0000eec4       _fcloseall                 000000014000fec4 f   libucrt:closeall.obj
 0001:0000ef78       __acrt_stdio_flush_nolock  000000014000ff78 f   libucrt:fflush.obj
 0001:0000eff0       _fflush_nolock             000000014000fff0 f   libucrt:fflush.obj
 0001:0000f03c       _flushall                  000000014001003c f   libucrt:fflush.obj
 0001:0000f12c       __acrt_stdio_free_buffer_nolock 000000014001012c f   libucrt:_freebuf.obj
 0001:0000f16c       _isatty                    000000014001016c f   libucrt:isatty.obj
 0001:0000f2a0       qsort                      00000001400102a0 f   libucrt:qsort.obj
 0001:0000f5d4       strncpy_s                  00000001400105d4 f   libucrt:strncpy_s.obj
 0001:0000f6a8       strpbrk                    00000001400106a8 f   libucrt:strpbrk.obj
 0001:0000f748       _mbsdec                    0000000140010748 f   libucrt:mbsdec.obj
 0001:0000f750       _mbsdec_l                  0000000140010750 f   libucrt:mbsdec.obj
 0001:0000f8c8       __acrt_DownlevelLocaleNameToLCID 00000001400108c8 f   libucrt:lcidtoname_downlevel.obj
 0001:0000f8fc       _msize                     00000001400108fc f   libucrt:msize.obj
 0001:0000f938       _realloc_base              0000000140010938 f   libucrt:realloc_base.obj
 0001:0000f9bc       __strncnt                  00000001400109bc f   libucrt:strncnt.obj
 0001:0000f9d4       fegetenv                   00000001400109d4 f   libucrt:fegetenv.obj
 0001:0000f9f4       fesetenv                   00000001400109f4 f   libucrt:fesetenv.obj
 0001:0000fa40       feholdexcept               0000000140010a40 f   libucrt:feholdexcept.obj
 0001:0000fa90       ceil                       0000000140010a90 f   libucrt:ceil.obj
 0001:0000fb60       log10                      0000000140010b60 f   libucrt:log10.obj
 0001:000106ac       _write                     00000001400116ac f   libucrt:write.obj
 0001:00010798       _write_nolock              0000000140011798 f   libucrt:write.obj
 0001:00010b18       _lseeki64_nolock           0000000140011b18 f   libucrt:lseek.obj
 0001:00010b20       _fclose_nolock             0000000140011b20 f   libucrt:fclose.obj
 0001:00010ba4       fclose                     0000000140011ba4 f   libucrt:fclose.obj
 0001:00010c10       ??$?RV<lambda_b521505b218e5242e90febf6bfebc422>@@AEAV<lambda_6978c1fb23f02e42e1d9e99668cc68aa>@@V<lambda_314360699dd331753a4119843814e9a7>@@@?$__crt_seh_guarded_call@H@@QEAAH$$QEAV<lambda_b521505b218e5242e90febf6bfebc422>@@AEAV<lambda_6978c1fb23f02e42e1d9e99668cc68aa>@@$$QEAV<lambda_314360699dd331753a4119843814e9a7>@@@Z 0000000140011c10 f i libucrt:commit.obj
 0001:00010c9c       _commit                    0000000140011c9c f   libucrt:commit.obj
 0001:00010d30       _getfpcontrolword          0000000140011d30 f   libucrt:_fenvutils.obj
 0001:00010d48       _getfpstatusword           0000000140011d48 f   libucrt:_fenvutils.obj
 0001:00010d5c       _setfpcontrolword          0000000140011d5c f   libucrt:_fenvutils.obj
 0001:00010d68       _setfpstatusword           0000000140011d68 f   libucrt:_fenvutils.obj
 0001:00010db8       _clearfp                   0000000140011db8 f   libucrt:ieee.obj
 0001:00010e0c       _controlfp                 0000000140011e0c f   libucrt:ieee.obj
 0001:00010e18       _statusfp                  0000000140011e18 f   libucrt:ieee.obj
 0001:0001121c       _handle_error              000000014001221c f   libucrt:libm_error.obj
 0001:00011344       _handle_nan                0000000140012344 f   libucrt:libm_error.obj
 0001:00011360       __acrt_initialize_fma3     0000000140012360 f   libucrt:fma3_available.obj
 0001:000113d0       _log10_special             00000001400123d0 f   libucrt:log_special.obj
 0001:00011488       _putwch_nolock             0000000140012488 f   libucrt:putwch.obj
 0001:000114e4       ??$?RV<lambda_bfedae4ebbf01fab1bb6dcc6a9e276e0>@@AEAV<lambda_2fe9b910cf3cbf4a0ab98a02ba45b3ec>@@V<lambda_237c231691f317818eb88cc1d5d642d6>@@@?$__crt_seh_guarded_call@H@@QEAAH$$QEAV<lambda_bfedae4ebbf01fab1bb6dcc6a9e276e0>@@AEAV<lambda_2fe9b910cf3cbf4a0ab98a02ba45b3ec>@@$$QEAV<lambda_237c231691f317818eb88cc1d5d642d6>@@@Z 00000001400124e4 f i libucrt:close.obj
 0001:00011558       _close                     0000000140012558 f   libucrt:close.obj
 0001:000115fc       _close_nolock              00000001400125fc f   libucrt:close.obj
 0001:000116b8       ?__acrt_stdio_free_stream@@YAXV__crt_stdio_stream@@@Z 00000001400126b8 f   libucrt:stream.obj
 0001:00011710       _get_fpsr                  0000000140012710 f   libucrt:fpsr.obj
 0001:00011720       _set_fpsr                  0000000140012720 f   libucrt:fpsr.obj
 0001:0001172a       _fclrf                     000000014001272a f   libucrt:fpsr.obj
 0001:0001173e       _frnd                      000000014001273e f   libucrt:fpsr.obj
 0001:00011760       _raise_exc                 0000000140012760 f   libucrt:fpexcept.obj
 0001:00011788       _raise_exc_ex              0000000140012788 f   libucrt:fpexcept.obj
 0001:00011a90       _set_errno_from_matherr    0000000140012a90 f   libucrt:fpexcept.obj
 0001:00011ac0       _clrfp                     0000000140012ac0 f   libucrt:fpctrl.obj
 0001:00011ae0       _ctrlfp                    0000000140012ae0 f   libucrt:fpctrl.obj
 0001:00011b5c       _set_statfp                0000000140012b5c f   libucrt:fpctrl.obj
 0001:00011b7c       _statfp                    0000000140012b7c f   libucrt:fpctrl.obj
 0001:00011b90       __dcrt_lowio_initialize_console_output 0000000140012b90 f   libucrt:initcon.obj
 0001:00011bcc       __dcrt_terminate_console_output 0000000140012bcc f   libucrt:initcon.obj
 0001:00011bf0       _FindPESection             0000000140012bf0 f   LIBCMT:pesect.obj
 0001:00011c40       _IsNonwritableInCurrentImage 0000000140012c40 f   LIBCMT:pesect.obj
 0001:00011c90       _ValidateImageBase         0000000140012c90 f   LIBCMT:pesect.obj
 0001:00011cbe       RtlUnwindEx                0000000140012cbe f   kernel32:KERNEL32.dll
 0001:00011cc4       SystemFunction036          0000000140012cc4 f   advapi32:ADVAPI32.dll
 0001:00011ce0       memcpy                     0000000140012ce0 f   libvcruntime:memcpy.obj
 0001:00011ce0       memmove                    0000000140012ce0 f   libvcruntime:memcpy.obj
 0001:00012130       memcmp                     0000000140013130 f   libvcruntime:memcmp.obj
 0001:000121f8       strrchr                    00000001400131f8 f   libvcruntime:strrchr.obj
 0001:00012350       _guard_dispatch_icall_nop  0000000140013350 f   LIBCMT:_guard_dispatch_.obj
 0002:00000000       __imp_SystemFunction036    0000000140014000     advapi32:ADVAPI32.dll
 0002:00000008       \177ADVAPI32_NULL_THUNK_DATA 0000000140014008     advapi32:ADVAPI32.dll
 0002:00000010       __imp_StretchDIBits        0000000140014010     gdi32:GDI32.dll
 0002:00000018       \177GDI32_NULL_THUNK_DATA  0000000140014018     gdi32:GDI32.dll
 0002:00000020       __imp_WriteConsoleW        0000000140014020     kernel32:KERNEL32.dll
 0002:00000028       __imp_FlushFileBuffers     0000000140014028     kernel32:KERNEL32.dll
 0002:00000030       __imp_RaiseException       0000000140014030     kernel32:KERNEL32.dll
 0002:00000038       __imp_GetConsoleMode       0000000140014038     kernel32:KERNEL32.dll
 0002:00000040       __imp_GetConsoleCP         0000000140014040     kernel32:KERNEL32.dll
 0002:00000048       __imp_HeapReAlloc          0000000140014048     kernel32:KERNEL32.dll
 0002:00000050       __imp_HeapSize             0000000140014050     kernel32:KERNEL32.dll
 0002:00000058       __imp_CreateFileW          0000000140014058     kernel32:KERNEL32.dll
 0002:00000060       __imp_SetFilePointerEx     0000000140014060     kernel32:KERNEL32.dll
 0002:00000068       __imp_GetProcessHeap       0000000140014068     kernel32:KERNEL32.dll
 0002:00000070       __imp_CompareFileTime      0000000140014070     kernel32:KERNEL32.dll
 0002:00000078       __imp_CreateFileA          0000000140014078     kernel32:KERNEL32.dll
 0002:00000080       __imp_FindClose            0000000140014080     kernel32:KERNEL32.dll
 0002:00000088       __imp_FindFirstFileA       0000000140014088     kernel32:KERNEL32.dll
 0002:00000090       __imp_GetFileSizeEx        0000000140014090     kernel32:KERNEL32.dll
 0002:00000098       __imp_ReadFile             0000000140014098     kernel32:KERNEL32.dll
 0002:000000a0       __imp_WriteFile            00000001400140a0     kernel32:KERNEL32.dll
 0002:000000a8       __imp_OutputDebugStringA   00000001400140a8     kernel32:KERNEL32.dll
 0002:000000b0       __imp_CloseHandle          00000001400140b0     kernel32:KERNEL32.dll
 0002:000000b8       __imp_QueryPerformanceCounter 00000001400140b8     kernel32:KERNEL32.dll
 0002:000000c0       __imp_QueryPerformanceFrequency 00000001400140c0     kernel32:KERNEL32.dll
 0002:000000c8       __imp_Sleep                00000001400140c8     kernel32:KERNEL32.dll
 0002:000000d0       __imp_VirtualAlloc         00000001400140d0     kernel32:KERNEL32.dll
 0002:000000d8       __imp_VirtualFree          00000001400140d8     kernel32:KERNEL32.dll
 0002:000000e0       __imp_FreeLibrary          00000001400140e0     kernel32:KERNEL32.dll
 0002:000000e8       __imp_GetModuleFileNameA   00000001400140e8     kernel32:KERNEL32.dll
 0002:000000f0       __imp_GetProcAddress       00000001400140f0     kernel32:KERNEL32.dll
 0002:000000f8       __imp_LoadLibraryA         00000001400140f8     kernel32:KERNEL32.dll
 0002:00000100       __imp_CopyFileA            0000000140014100     kernel32:KERNEL32.dll
 0002:00000108       __imp_RtlCaptureContext    0000000140014108     kernel32:KERNEL32.dll
 0002:00000110       __imp_RtlLookupFunctionEntry 0000000140014110     kernel32:KERNEL32.dll
 0002:00000118       __imp_RtlVirtualUnwind     0000000140014118     kernel32:KERNEL32.dll
 0002:00000120       __imp_UnhandledExceptionFilter 0000000140014120     kernel32:KERNEL32.dll
 0002:00000128       __imp_SetUnhandledExceptionFilter 0000000140014128     kernel32:KERNEL32.dll
 0002:00000130       __imp_GetCurrentProcess    0000000140014130     kernel32:KERNEL32.dll
 0002:00000138       __imp_TerminateProcess     0000000140014138     kernel32:KERNEL32.dll
 0002:00000140       __imp_IsProcessorFeaturePresent 0000000140014140     kernel32:KERNEL32.dll
 0002:00000148       __imp_GetCurrentProcessId  0000000140014148     kernel32:KERNEL32.dll
 0002:00000150       __imp_GetCurrentThreadId   0000000140014150     kernel32:KERNEL32.dll
 0002:00000158       __imp_GetSystemTimeAsFileTime 0000000140014158     kernel32:KERNEL32.dll
 0002:00000160       __imp_InitializeSListHead  0000000140014160     kernel32:KERNEL32.dll
 0002:00000168       __imp_IsDebuggerPresent    0000000140014168     kernel32:KERNEL32.dll
 0002:00000170       __imp_GetStartupInfoW      0000000140014170     kernel32:KERNEL32.dll
 0002:00000178       __imp_GetModuleHandleW     0000000140014178     kernel32:KERNEL32.dll
 0002:00000180       __imp_GetLastError         0000000140014180     kernel32:KERNEL32.dll
 0002:00000188       __imp_GetModuleFileNameW   0000000140014188     kernel32:KERNEL32.dll
 0002:00000190       __imp_RtlUnwindEx          0000000140014190     kernel32:KERNEL32.dll
 0002:00000198       __imp_InitializeCriticalSectionAndSpinCount 0000000140014198     kernel32:KERNEL32.dll
 0002:000001a0       __imp_TlsAlloc             00000001400141a0     kernel32:KERNEL32.dll
 0002:000001a8       __imp_TlsGetValue          00000001400141a8     kernel32:KERNEL32.dll
 0002:000001b0       __imp_TlsSetValue          00000001400141b0     kernel32:KERNEL32.dll
 0002:000001b8       __imp_TlsFree              00000001400141b8     kernel32:KERNEL32.dll
 0002:000001c0       __imp_LoadLibraryExW       00000001400141c0     kernel32:KERNEL32.dll
 0002:000001c8       __imp_SetLastError         00000001400141c8     kernel32:KERNEL32.dll
 0002:000001d0       __imp_EnterCriticalSection 00000001400141d0     kernel32:KERNEL32.dll
 0002:000001d8       __imp_LeaveCriticalSection 00000001400141d8     kernel32:KERNEL32.dll
 0002:000001e0       __imp_DeleteCriticalSection 00000001400141e0     kernel32:KERNEL32.dll
 0002:000001e8       __imp_GetStdHandle         00000001400141e8     kernel32:KERNEL32.dll
 0002:000001f0       __imp_MultiByteToWideChar  00000001400141f0     kernel32:KERNEL32.dll
 0002:000001f8       __imp_WideCharToMultiByte  00000001400141f8     kernel32:KERNEL32.dll
 0002:00000200       __imp_ExitProcess          0000000140014200     kernel32:KERNEL32.dll
 0002:00000208       __imp_GetModuleHandleExW   0000000140014208     kernel32:KERNEL32.dll
 0002:00000210       __imp_GetACP               0000000140014210     kernel32:KERNEL32.dll
 0002:00000218       __imp_HeapFree             0000000140014218     kernel32:KERNEL32.dll
 0002:00000220       __imp_HeapAlloc            0000000140014220     kernel32:KERNEL32.dll
 0002:00000228       __imp_GetFileType          0000000140014228     kernel32:KERNEL32.dll
 0002:00000230       __imp_FindFirstFileExA     0000000140014230     kernel32:KERNEL32.dll
 0002:00000238       __imp_FindNextFileA        0000000140014238     kernel32:KERNEL32.dll
 0002:00000240       __imp_IsValidCodePage      0000000140014240     kernel32:KERNEL32.dll
 0002:00000248       __imp_GetOEMCP             0000000140014248     kernel32:KERNEL32.dll
 0002:00000250       __imp_GetCPInfo            0000000140014250     kernel32:KERNEL32.dll
 0002:00000258       __imp_GetCommandLineA      0000000140014258     kernel32:KERNEL32.dll
 0002:00000260       __imp_GetCommandLineW      0000000140014260     kernel32:KERNEL32.dll
 0002:00000268       __imp_GetEnvironmentStringsW 0000000140014268     kernel32:KERNEL32.dll
 0002:00000270       __imp_FreeEnvironmentStringsW 0000000140014270     kernel32:KERNEL32.dll
 0002:00000278       __imp_LCMapStringW         0000000140014278     kernel32:KERNEL32.dll
 0002:00000280       __imp_SetStdHandle         0000000140014280     kernel32:KERNEL32.dll
 0002:00000288       __imp_GetStringTypeW       0000000140014288     kernel32:KERNEL32.dll
 0002:00000290       \177KERNEL32_NULL_THUNK_DATA 0000000140014290     kernel32:KERNEL32.dll
 0002:00000298       __imp_GetDC                0000000140014298     user32:USER32.dll
 0002:000002a0       __imp_DispatchMessageA     00000001400142a0     user32:USER32.dll
 0002:000002a8       __imp_GetClientRect        00000001400142a8     user32:USER32.dll
 0002:000002b0       __imp_EndPaint             00000001400142b0     user32:USER32.dll
 0002:000002b8       __imp_BeginPaint           00000001400142b8     user32:USER32.dll
 0002:000002c0       __imp_TranslateMessage     00000001400142c0     user32:USER32.dll
 0002:000002c8       __imp_CreateWindowExA      00000001400142c8     user32:USER32.dll
 0002:000002d0       __imp_RegisterClassA       00000001400142d0     user32:USER32.dll
 0002:000002d8       __imp_DefWindowProcA       00000001400142d8     user32:USER32.dll
 0002:000002e0       __imp_PeekMessageA         00000001400142e0     user32:USER32.dll
 0002:000002e8       \177USER32_NULL_THUNK_DATA 00000001400142e8     user32:USER32.dll
 0002:000002f0       __imp_timeBeginPeriod      00000001400142f0     winmm:WINMM.dll
 0002:000002f8       \177WINMM_NULL_THUNK_DATA  00000001400142f8     winmm:WINMM.dll
 0002:00000300       __guard_check_icall_fptr   0000000140014300     LIBCMT:guard_support.obj
 0002:00000308       __guard_dispatch_icall_fptr 0000000140014308     LIBCMT:guard_support.obj
 0002:00000310       __xc_a                     0000000140014310     LIBCMT:initializers.obj
 0002:00000320       __xc_z                     0000000140014320     LIBCMT:initializers.obj
 0002:00000328       __xi_a                     0000000140014328     LIBCMT:initializers.obj
 0002:00000340       __acrt_stdio_initializer   0000000140014340     libucrt:stdio_initializer.obj
 0002:00000348       __acrt_multibyte_initializer 0000000140014348     libucrt:multibyte_initializer.obj
 0002:00000350       __acrt_tran_fma3_initializer 0000000140014350     libucrt:fma3_initializer.obj
 0002:00000358       __xi_z                     0000000140014358     LIBCMT:initializers.obj
 0002:00000360       __xp_a                     0000000140014360     LIBCMT:initializers.obj
 0002:00000368       __acrt_locale_terminator   0000000140014368     libucrt:locale_initializer.obj
 0002:00000370       __dcrt_console_output_terminator 0000000140014370     libucrt:console_output_initializer.obj
 0002:00000378       __acrt_stdio_terminator    0000000140014378     libucrt:stdio_initializer.obj
 0002:00000380       __xp_z                     0000000140014380     LIBCMT:initializers.obj
 0002:00000388       __xt_a                     0000000140014388     LIBCMT:initializers.obj
 0002:00000390       __xt_z                     0000000140014390     LIBCMT:initializers.obj
 0002:0000058c       __real@00000000            000000014001458c     win32_handmade.obj
 0002:00000590       __real@3d088889            0000000140014590     win32_handmade.obj
 0002:00000594       __real@3f000000            0000000140014594     win32_handmade.obj
 0002:00000598       __real@3f800000            0000000140014598     win32_handmade.obj
 0002:000005a0       __real@412e848000000000    00000001400145a0     win32_handmade.obj
 0002:000005a8       __real@43f0000000000000    00000001400145a8     win32_handmade.obj
 0002:000005b0       __real@447a0000            00000001400145b0     win32_handmade.obj
 0002:000005b4       __real@46fffe00            00000001400145b4     win32_handmade.obj
 0002:000005b8       __real@47000000            00000001400145b8     win32_handmade.obj
 0002:000005bc       __real@bf800000            00000001400145bc     win32_handmade.obj
 0002:000005c0       __xmm@80000000800000008000000080000000 00000001400145c0     win32_handmade.obj
 0002:000005e0       _Microsoft_CRTProvider     00000001400145e0     libvcruntime:telemetry.obj
 0002:000005e8       ??_C@_00CNPNBAHC@?$AA@     00000001400145e8     libvcruntime:telemetry.obj
 0002:000005ec       ??_C@_11LOCGONAA@?$AA?$AA@ 00000001400145ec     libvcruntime:telemetry.obj
 0002:000005f0       ??_C@_0O@JEOPJOMI@Main?5Invoked?4?$AA@ 00000001400145f0     libvcruntime:telemetry.obj
 0002:00000600       ??_C@_0P@NEAEIBDO@Main?5Returned?4?$AA@ 0000000140014600     libvcruntime:telemetry.obj
 0002:00000630       ??_C@_1BC@DNHGCMLG@?$AAa?$AAd?$AAv?$AAa?$AAp?$AAi?$AA3?$AA2?$AA?$AA@ 0000000140014630     libvcruntime:winapi_downlevel.obj
 0002:00000648       ??_C@_1DM@KHCHBNEB@?$AAa?$AAp?$AAi?$AA?9?$AAm?$AAs?$AA?9?$AAw?$AAi?$AAn?$AA?9?$AAc?$AAo?$AAr?$AAe?$AA?9?$AAf?$AAi?$AAb?$AAe?$AAr?$AAs?$AA?9?$AAl?$AA1?$AA?9?$AA1?$AA?9?$AA1?$AA?$AA@ 0000000140014648     libvcruntime:winapi_downlevel.obj
 0002:00000688       ??_C@_1DK@LPPGFMPP@?$AAa?$AAp?$AAi?$AA?9?$AAm?$AAs?$AA?9?$AAw?$AAi?$AAn?$AA?9?$AAc?$AAo?$AAr?$AAe?$AA?9?$AAs?$AAy?$AAn?$AAc?$AAh?$AA?9?$AAl?$AA1?$AA?9?$AA2?$AA?9?$AA0?$AA?$AA@ 0000000140014688     libvcruntime:winapi_downlevel.obj
 0002:000006c8       ??_C@_1BC@GDMECMAK@?$AAk?$AAe?$AAr?$AAn?$AAe?$AAl?$AA3?$AA2?$AA?$AA@ 00000001400146c8     libvcruntime:winapi_downlevel.obj
 0002:000006e0       ??_C@_0O@BAMBGLIE@EventRegister?$AA@ 00000001400146e0     libvcruntime:winapi_downlevel.obj
 0002:000006f8       ??_C@_0BE@BJEEGHGK@EventSetInformation?$AA@ 00000001400146f8     libvcruntime:winapi_downlevel.obj
 0002:00000710       ??_C@_0BA@FAKLIPIC@EventUnregister?$AA@ 0000000140014710     libvcruntime:winapi_downlevel.obj
 0002:00000728       ??_C@_0BD@PKLHJPHD@EventWriteTransfer?$AA@ 0000000140014728     libvcruntime:winapi_downlevel.obj
 0002:00000748       ??_C@_08KNHFBNJ@FlsAlloc?$AA@ 0000000140014748     libvcruntime:winapi_downlevel.obj
 0002:00000760       ??_C@_07PEJMOBNF@FlsFree?$AA@ 0000000140014760     libvcruntime:winapi_downlevel.obj
 0002:00000768       ??_C@_0M@GDNOONDI@FlsGetValue?$AA@ 0000000140014768     libvcruntime:winapi_downlevel.obj
 0002:00000780       ??_C@_0M@JCPCPOEF@FlsSetValue?$AA@ 0000000140014780     libvcruntime:winapi_downlevel.obj
 0002:00000798       ??_C@_0BM@HCFOFFN@InitializeCriticalSectionEx?$AA@ 0000000140014798     libvcruntime:winapi_downlevel.obj
 0002:000007b4       ??_C@_02EEKDKGMJ@?$DO?$DN?$AA@ 00000001400147b4     libvcruntime:undname.obj
 0002:000007b8       ??_C@_01IHBHIGKO@?0?$AA@   00000001400147b8     libvcruntime:undname.obj
 0002:000007bc       ??_C@_02HCKGKOFO@?$CI?$CJ?$AA@ 00000001400147bc     libvcruntime:undname.obj
 0002:000007c0       ??_C@_01PJKLJHI@?$HO?$AA@  00000001400147c0     libvcruntime:undname.obj
 0002:000007c4       ??_C@_01JKBOJNNK@?$FO?$AA@ 00000001400147c4     libvcruntime:undname.obj
 0002:000007c8       ??_C@_01DNKMNLPK@?$HM?$AA@ 00000001400147c8     libvcruntime:undname.obj
 0002:000007cc       ??_C@_02PPKAJPJL@?$CG?$CG?$AA@ 00000001400147cc     libvcruntime:undname.obj
 0002:000007d0       ??_C@_02NONPIBCD@?$HM?$HM?$AA@ 00000001400147d0     libvcruntime:undname.obj
 0002:000007d4       ??_C@_02FPIMKNGF@?$CK?$DN?$AA@ 00000001400147d4     libvcruntime:undname.obj
 0002:000007d8       ??_C@_02FOEOMHFC@?$CL?$DN?$AA@ 00000001400147d8     libvcruntime:undname.obj
 0002:000007dc       ??_C@_02FKMDLLOA@?9?$DN?$AA@ 00000001400147dc     libvcruntime:undname.obj
 0002:000007e0       ??_C@_02FJEHGPIO@?1?$DN?$AA@ 00000001400147e0     libvcruntime:undname.obj
 0002:000007e4       ??_C@_02FENAOKFI@?$CF?$DN?$AA@ 00000001400147e4     libvcruntime:undname.obj
 0002:000007e8       ??_C@_03IKFCCPFF@?$DO?$DO?$DN?$AA@ 00000001400147e8     libvcruntime:undname.obj
 0002:000007ec       ??_C@_03CDNPDDLA@?$DM?$DM?$DN?$AA@ 00000001400147ec     libvcruntime:undname.obj
 0002:000007f0       ??_C@_02FGJGFEAB@?$CG?$DN?$AA@ 00000001400147f0     libvcruntime:undname.obj
 0002:000007f4       ??_C@_02DHLNPPGH@?$HM?$DN?$AA@ 00000001400147f4     libvcruntime:undname.obj
 0002:000007f8       ??_C@_02MHEGNOJ@?$FO?$DN?$AA@ 00000001400147f8     libvcruntime:undname.obj
 0002:00000800       ??_C@_09IFPLHPGF@?$GAvftable?8?$AA@ 0000000140014800     libvcruntime:undname.obj
 0002:00000810       ??_C@_09BLBHBJP@?$GAvbtable?8?$AA@ 0000000140014810     libvcruntime:undname.obj
 0002:00000820       ??_C@_07FEEIOKP@?$GAvcall?8?$AA@ 0000000140014820     libvcruntime:undname.obj
 0002:00000828       ??_C@_08LLFFHHDJ@?$GAtypeof?8?$AA@ 0000000140014828     libvcruntime:undname.obj
 0002:00000838       ??_C@_0BF@KDPPACIK@?$GAlocal?5static?5guard?8?$AA@ 0000000140014838     libvcruntime:undname.obj
 0002:00000850       ??_C@_08OBABFOLI@?$GAstring?8?$AA@ 0000000140014850     libvcruntime:undname.obj
 0002:00000860       ??_C@_0BD@JDLKDPAB@?$GAvbase?5destructor?8?$AA@ 0000000140014860     libvcruntime:undname.obj
 0002:00000878       ??_C@_0BN@DEGPLNFK@?$GAvector?5deleting?5destructor?8?$AA@ 0000000140014878     libvcruntime:undname.obj
 0002:00000898       ??_C@_0BO@OBMKPJIG@?$GAdefault?5constructor?5closure?8?$AA@ 0000000140014898     libvcruntime:undname.obj
 0002:000008b8       ??_C@_0BN@IMDCHIKM@?$GAscalar?5deleting?5destructor?8?$AA@ 00000001400148b8     libvcruntime:undname.obj
 0002:000008d8       ??_C@_0BO@PFGOCPJJ@?$GAvector?5constructor?5iterator?8?$AA@ 00000001400148d8     libvcruntime:undname.obj
 0002:000008f8       ??_C@_0BN@LFPFMEDL@?$GAvector?5destructor?5iterator?8?$AA@ 00000001400148f8     libvcruntime:undname.obj
 0002:00000918       ??_C@_0CE@IKBNEHA@?$GAvector?5vbase?5constructor?5iterat@ 0000000140014918     libvcruntime:undname.obj
 0002:00000940       ??_C@_0BL@NILFHHPC@?$GAvirtual?5displacement?5map?8?$AA@ 0000000140014940     libvcruntime:undname.obj
 0002:00000960       ??_C@_0CB@JONCMFFK@?$GAeh?5vector?5constructor?5iterator?8@ 0000000140014960     libvcruntime:undname.obj
 0002:00000988       ??_C@_0CA@GCEOPDGL@?$GAeh?5vector?5destructor?5iterator?8?$AA@ 0000000140014988     libvcruntime:undname.obj
 0002:000009a8       ??_C@_0CH@OOJPLCPH@?$GAeh?5vector?5vbase?5constructor?5ite@ 00000001400149a8     libvcruntime:undname.obj
 0002:000009d0       ??_C@_0BL@LLKPOHJI@?$GAcopy?5constructor?5closure?8?$AA@ 00000001400149d0     libvcruntime:undname.obj
 0002:000009f0       ??_C@_0BA@KBCDOMBN@?$GAudt?5returning?8?$AA@ 00000001400149f0     libvcruntime:undname.obj
 0002:00000a00       ??_C@_03KLGMFNMG@?$GAEH?$AA@ 0000000140014a00     libvcruntime:undname.obj
 0002:00000a04       ??_C@_05KHLCHHI@?$GARTTI?$AA@ 0000000140014a04     libvcruntime:undname.obj
 0002:00000a10       ??_C@_0BA@KKLDJDLB@?$GAlocal?5vftable?8?$AA@ 0000000140014a10     libvcruntime:undname.obj
 0002:00000a20       ??_C@_0CE@IIHCMGGL@?$GAlocal?5vftable?5constructor?5closu@ 0000000140014a20     libvcruntime:undname.obj
 0002:00000a44       ??_C@_06FHBGPFGH@?5new?$FL?$FN?$AA@ 0000000140014a44     libvcruntime:undname.obj
 0002:00000a50       ??_C@_09LBNFPBCA@?5delete?$FL?$FN?$AA@ 0000000140014a50     libvcruntime:undname.obj
 0002:00000a60       ??_C@_0P@HJKNJFNN@?$GAomni?5callsig?8?$AA@ 0000000140014a60     libvcruntime:undname.obj
 0002:00000a70       ??_C@_0BL@CNOONJFP@?$GAplacement?5delete?5closure?8?$AA@ 0000000140014a70     libvcruntime:undname.obj
 0002:00000a90       ??_C@_0BN@CKNJLHMB@?$GAplacement?5delete?$FL?$FN?5closure?8?$AA@ 0000000140014a90     libvcruntime:undname.obj
 0002:00000ab0       ??_C@_0CG@CFDHKGGD@?$GAmanaged?5vector?5constructor?5iter@ 0000000140014ab0     libvcruntime:undname.obj
 0002:00000ad8       ??_C@_0CF@IMGKMJNO@?$GAmanaged?5vector?5destructor?5itera@ 0000000140014ad8     libvcruntime:undname.obj
 0002:00000b00       ??_C@_0CG@HLDDJMAG@?$GAeh?5vector?5copy?5constructor?5iter@ 0000000140014b00     libvcruntime:undname.obj
 0002:00000b28       ??_C@_0CM@FCBBDIGB@?$GAeh?5vector?5vbase?5copy?5constructo@ 0000000140014b28     libvcruntime:undname.obj
 0002:00000b58       ??_C@_0BL@CLIPGLGB@?$GAdynamic?5initializer?5for?5?8?$AA@ 0000000140014b58     libvcruntime:undname.obj
 0002:00000b78       ??_C@_0CB@PDBIFEP@?$GAdynamic?5atexit?5destructor?5for?5?8@ 0000000140014b78     libvcruntime:undname.obj
 0002:00000ba0       ??_C@_0CD@CGAJBKEJ@?$GAvector?5copy?5constructor?5iterato@ 0000000140014ba0     libvcruntime:undname.obj
 0002:00000bc8       ??_C@_0CJ@GJELGAMM@?$GAvector?5vbase?5copy?5constructor?5i@ 0000000140014bc8     libvcruntime:undname.obj
 0002:00000bf8       ??_C@_0CL@FGIJHLCE@?$GAmanaged?5vector?5copy?5constructor@ 0000000140014bf8     libvcruntime:undname.obj
 0002:00000c28       ??_C@_0BM@PMGGMLDN@?$GAlocal?5static?5thread?5guard?8?$AA@ 0000000140014c28     libvcruntime:undname.obj
 0002:00000c48       ??_C@_0N@BDNMDMOL@operator?5?$CC?$CC?5?$AA@ 0000000140014c48     libvcruntime:undname.obj
 0002:00000f88       ??_C@_0BC@DAFEJGAK@?5Type?5Descriptor?8?$AA@ 0000000140014f88     libvcruntime:undname.obj
 0002:00000fa0       ??_C@_0BM@LDKODKLH@?5Base?5Class?5Descriptor?5at?5?$CI?$AA@ 0000000140014fa0     libvcruntime:undname.obj
 0002:00000fc0       ??_C@_0BD@LGICGFMM@?5Base?5Class?5Array?8?$AA@ 0000000140014fc0     libvcruntime:undname.obj
 0002:00000fd8       ??_C@_0BN@MECKDCOJ@?5Class?5Hierarchy?5Descriptor?8?$AA@ 0000000140014fd8     libvcruntime:undname.obj
 0002:00000ff8       ??_C@_0BK@CFCOFLF@?5Complete?5Object?5Locator?8?$AA@ 0000000140014ff8     libvcruntime:undname.obj
 0002:00001018       ??_C@_08EHJDFFNH@__based?$CI?$AA@ 0000000140015018     libvcruntime:undname.obj
 0002:00001028       ??_C@_07KOLFKCDI@__cdecl?$AA@ 0000000140015028     libvcruntime:undname.obj
 0002:00001030       ??_C@_08GHMPAG@__pascal?$AA@ 0000000140015030     libvcruntime:undname.obj
 0002:00001040       ??_C@_09IFJBGAPI@__stdcall?$AA@ 0000000140015040     libvcruntime:undname.obj
 0002:00001050       ??_C@_0L@NPHFGOKO@__thiscall?$AA@ 0000000140015050     libvcruntime:undname.obj
 0002:00001060       ??_C@_0L@JMKHOMEK@__fastcall?$AA@ 0000000140015060     libvcruntime:undname.obj
 0002:00001070       ??_C@_0N@BCKKPABJ@__vectorcall?$AA@ 0000000140015070     libvcruntime:undname.obj
 0002:00001080       ??_C@_09HIJEGCPM@__clrcall?$AA@ 0000000140015080     libvcruntime:undname.obj
 0002:0000108c       ??_C@_06GHPCKEAG@__eabi?$AA@ 000000014001508c     libvcruntime:undname.obj
 0002:00001098       ??_C@_07JOMMBBKO@__ptr64?$AA@ 0000000140015098     libvcruntime:undname.obj
 0002:000010a0       ??_C@_0L@PILCLIHE@__restrict?$AA@ 00000001400150a0     libvcruntime:undname.obj
 0002:000010b0       ??_C@_0M@GFIIJFMG@__unaligned?$AA@ 00000001400150b0     libvcruntime:undname.obj
 0002:000010c0       ??_C@_09DHDLOLLB@restrict?$CI?$AA@ 00000001400150c0     libvcruntime:undname.obj
 0002:000010cc       ??_C@_04NIHEBCM@?5new?$AA@ 00000001400150cc     libvcruntime:undname.obj
 0002:000010d8       ??_C@_07FPCDHGMM@?5delete?$AA@ 00000001400150d8     libvcruntime:undname.obj
 0002:000010e0       ??_C@_01NEMOKFLO@?$DN?$AA@ 00000001400150e0     libvcruntime:undname.obj
 0002:000010e4       ??_C@_02GPIOPFAK@?$DO?$DO?$AA@ 00000001400150e4     libvcruntime:undname.obj
 0002:000010e8       ??_C@_02FODMEDOG@?$DM?$DM?$AA@ 00000001400150e8     libvcruntime:undname.obj
 0002:000010ec       ??_C@_01DCLJPIOD@?$CB?$AA@ 00000001400150ec     libvcruntime:undname.obj
 0002:000010f0       ??_C@_02EGOFBIJA@?$DN?$DN?$AA@ 00000001400150f0     libvcruntime:undname.obj
 0002:000010f4       ??_C@_02FDNJECIE@?$CB?$DN?$AA@ 00000001400150f4     libvcruntime:undname.obj
 0002:000010f8       ??_C@_02GPECMEKF@?$FL?$FN?$AA@ 00000001400150f8     libvcruntime:undname.obj
 0002:00001100       ??_C@_08LHJFAFGD@operator?$AA@ 0000000140015100     libvcruntime:undname.obj
 0002:0000110c       ??_C@_02HBOOOICD@?9?$DO?$AA@ 000000014001510c     libvcruntime:undname.obj
 0002:00001110       ??_C@_01NBENCBCI@?$CK?$AA@ 0000000140015110     libvcruntime:undname.obj
 0002:00001114       ??_C@_02ECNGHCIF@?$CL?$CL?$AA@ 0000000140015114     libvcruntime:undname.obj
 0002:00001118       ??_C@_02BAABKJLB@?9?9?$AA@ 0000000140015118     libvcruntime:undname.obj
 0002:0000111c       ??_C@_01JOAMLHOP@?9?$AA@   000000014001511c     libvcruntime:undname.obj
 0002:00001120       ??_C@_01MIFGBAGJ@?$CL?$AA@ 0000000140015120     libvcruntime:undname.obj
 0002:00001124       ??_C@_01HNPIGOCE@?$CG?$AA@ 0000000140015124     libvcruntime:undname.obj
 0002:00001128       ??_C@_03MNHNFDLC@?9?$DO?$CK?$AA@ 0000000140015128     libvcruntime:undname.obj
 0002:0000112c       ??_C@_01KMDKNFGN@?1?$AA@   000000014001512c     libvcruntime:undname.obj
 0002:00001130       ??_C@_01FGNFDNOH@?$CF?$AA@ 0000000140015130     libvcruntime:undname.obj
 0002:00001134       ??_C@_01MNNFJEPP@?$DM?$AA@ 0000000140015134     libvcruntime:undname.obj
 0002:00001138       ??_C@_02EHCHHCKH@?$DM?$DN?$AA@ 0000000140015138     libvcruntime:undname.obj
 0002:0000113c       ??_C@_01PPODPGHN@?$DO?$AA@ 000000014001513c     libvcruntime:undname.obj
 0002:00001140       standard_lookup_table      0000000140015140     libucrt:output.obj
 0002:000011a0       format_validation_lookup_table 00000001400151a0     libucrt:output.obj
 0002:000011fc       ??_C@_06OJHGLDPL@?$CInull?$CJ?$AA@ 00000001400151fc     libucrt:output.obj
 0002:00001208       ??_C@_1O@CEDCILHN@?$AA?$CI?$AAn?$AAu?$AAl?$AAl?$AA?$CJ?$AA?$AA@ 0000000140015208     libucrt:output.obj
 0002:00001220       __acrt_exception_action_table 0000000140015220     libucrt:exception_filter.obj
 0002:000012e0       __acrt_signal_action_table_count 00000001400152e0     libucrt:exception_filter.obj
 0002:000012e8       __acrt_signal_action_first_fpe_index 00000001400152e8     libucrt:exception_filter.obj
 0002:000012f0       __acrt_signal_action_fpe_count 00000001400152f0     libucrt:exception_filter.obj
 0002:000012f8       ??_C@_1BI@BGOHAHKC@?$AAm?$AAs?$AAc?$AAo?$AAr?$AAe?$AAe?$AA?4?$AAd?$AAl?$AAl?$AA?$AA@ 00000001400152f8     libucrt:exit.obj
 0002:00001310       ??_C@_0P@MIGLKIOC@CorExitProcess?$AA@ 0000000140015310     libucrt:exit.obj
 0002:00001578       ??_C@_03OEIAHPBN@INF?$AA@  0000000140015578     libucrt:cvt.obj
 0002:0000157c       ??_C@_03OJHLLCGB@inf?$AA@  000000014001557c     libucrt:cvt.obj
 0002:00001580       ??_C@_03LKNCIKJB@NAN?$AA@  0000000140015580     libucrt:cvt.obj
 0002:00001584       ??_C@_03LHCJEHON@nan?$AA@  0000000140015584     libucrt:cvt.obj
 0002:00001588       ??_C@_09OFJJIMPC@NAN?$CISNAN?$CJ?$AA@ 0000000140015588     libucrt:cvt.obj
 0002:00001598       ??_C@_09IPFBKMDL@nan?$CIsnan?$CJ?$AA@ 0000000140015598     libucrt:cvt.obj
 0002:000015a8       ??_C@_08IKHNHAJ@NAN?$CIIND?$CJ?$AA@ 00000001400155a8     libucrt:cvt.obj
 0002:000015b8       ??_C@_08OFCDMILK@nan?$CIind?$CJ?$AA@ 00000001400155b8     libucrt:cvt.obj
 0002:000015c4       ??_C@_05KLBDPFGC@e?$CL000?$AA@ 00000001400155c4     libucrt:cvt.obj
 0002:000015d0       __lc_time_c                00000001400155d0     libucrt:nlsdata.obj
 0002:00001890       ??_C@_03KOEHGMDN@Sun?$AA@  0000000140015890     libucrt:nlsdata.obj
 0002:00001894       ??_C@_03PDAGKDH@Mon?$AA@   0000000140015894     libucrt:nlsdata.obj
 0002:00001898       ??_C@_03NAGEINEP@Tue?$AA@  0000000140015898     libucrt:nlsdata.obj
 0002:0000189c       ??_C@_03MHOMLAJA@Wed?$AA@  000000014001589c     libucrt:nlsdata.obj
 0002:000018a0       ??_C@_03IOFIKPDN@Thu?$AA@  00000001400158a0     libucrt:nlsdata.obj
 0002:000018a4       ??_C@_03IDIOELNC@Fri?$AA@  00000001400158a4     libucrt:nlsdata.obj
 0002:000018a8       ??_C@_03FEFJNEK@Sat?$AA@   00000001400158a8     libucrt:nlsdata.obj
 0002:000018ac       ??_C@_06OOPIFAJ@Sunday?$AA@ 00000001400158ac     libucrt:nlsdata.obj
 0002:000018b4       ??_C@_06JLEDEDGH@Monday?$AA@ 00000001400158b4     libucrt:nlsdata.obj
 0002:000018c0       ??_C@_07BAAGCFCM@Tuesday?$AA@ 00000001400158c0     libucrt:nlsdata.obj
 0002:000018c8       ??_C@_09DLIGFAKA@Wednesday?$AA@ 00000001400158c8     libucrt:nlsdata.obj
 0002:000018d8       ??_C@_08HACCIKIA@Thursday?$AA@ 00000001400158d8     libucrt:nlsdata.obj
 0002:000018e4       ??_C@_06JECMNKMI@Friday?$AA@ 00000001400158e4     libucrt:nlsdata.obj
 0002:000018f0       ??_C@_08INBOOONO@Saturday?$AA@ 00000001400158f0     libucrt:nlsdata.obj
 0002:000018fc       ??_C@_03JIHJHPIE@Jan?$AA@  00000001400158fc     libucrt:nlsdata.obj
 0002:00001900       ??_C@_03HJBDCHOM@Feb?$AA@  0000000140015900     libucrt:nlsdata.obj
 0002:00001904       ??_C@_03ODNJBKGA@Mar?$AA@  0000000140015904     libucrt:nlsdata.obj
 0002:00001908       ??_C@_03LEOLGMJP@Apr?$AA@  0000000140015908     libucrt:nlsdata.obj
 0002:0000190c       ??_C@_03CNMDKL@May?$AA@    000000014001590c     libucrt:nlsdata.obj
 0002:00001910       ??_C@_03IDFGHECI@Jun?$AA@  0000000140015910     libucrt:nlsdata.obj
 0002:00001914       ??_C@_03LBGABGKK@Jul?$AA@  0000000140015914     libucrt:nlsdata.obj
 0002:00001918       ??_C@_03IFJFEIGA@Aug?$AA@  0000000140015918     libucrt:nlsdata.obj
 0002:0000191c       ??_C@_03GGCAPAJC@Sep?$AA@  000000014001591c     libucrt:nlsdata.obj
 0002:00001920       ??_C@_03BMAOKBAD@Oct?$AA@  0000000140015920     libucrt:nlsdata.obj
 0002:00001924       ??_C@_03JPJOFNIA@Nov?$AA@  0000000140015924     libucrt:nlsdata.obj
 0002:00001928       ??_C@_03MKABNOCG@Dec?$AA@  0000000140015928     libucrt:nlsdata.obj
 0002:00001930       ??_C@_07CGJPFGJA@January?$AA@ 0000000140015930     libucrt:nlsdata.obj
 0002:00001938       ??_C@_08GNJGEPFN@February?$AA@ 0000000140015938     libucrt:nlsdata.obj
 0002:00001944       ??_C@_05HPCKOFNC@March?$AA@ 0000000140015944     libucrt:nlsdata.obj
 0002:0000194c       ??_C@_05DMJDNLEJ@April?$AA@ 000000014001594c     libucrt:nlsdata.obj
 0002:00001954       ??_C@_04CNLMGBGM@June?$AA@ 0000000140015954     libucrt:nlsdata.obj
 0002:0000195c       ??_C@_04MIEPOIFP@July?$AA@ 000000014001595c     libucrt:nlsdata.obj
 0002:00001964       ??_C@_06LBBHFDDG@August?$AA@ 0000000140015964     libucrt:nlsdata.obj
 0002:00001970       ??_C@_09BHHEALKD@September?$AA@ 0000000140015970     libucrt:nlsdata.obj
 0002:00001980       ??_C@_07JJNFCEND@October?$AA@ 0000000140015980     libucrt:nlsdata.obj
 0002:00001988       ??_C@_08HCHEGEOA@November?$AA@ 0000000140015988     libucrt:nlsdata.obj
 0002:00001998       ??_C@_08EDHMEBNP@December?$AA@ 0000000140015998     libucrt:nlsdata.obj
 0002:000019a4       ??_C@_02DEDBPAFC@AM?$AA@   00000001400159a4     libucrt:nlsdata.obj
 0002:000019a8       ??_C@_02CJNFDJBF@PM?$AA@   00000001400159a8     libucrt:nlsdata.obj
 0002:000019b0       ??_C@_08BPBNCDIB@MM?1dd?1yy?$AA@ 00000001400159b0     libucrt:nlsdata.obj
 0002:000019c0       ??_C@_0BE@CKGJFCPC@dddd?0?5MMMM?5dd?0?5yyyy?$AA@ 00000001400159c0     libucrt:nlsdata.obj
 0002:000019d8       ??_C@_08JCCMCCIL@HH?3mm?3ss?$AA@ 00000001400159d8     libucrt:nlsdata.obj
 0002:000019e8       ??_C@_17MBGCMIPB@?$AAS?$AAu?$AAn?$AA?$AA@ 00000001400159e8     libucrt:nlsdata.obj
 0002:000019f0       ??_C@_17KBOMKBF@?$AAM?$AAo?$AAn?$AA?$AA@ 00000001400159f0     libucrt:nlsdata.obj
 0002:000019f8       ??_C@_17BMKGEGOJ@?$AAT?$AAu?$AAe?$AA?$AA@ 00000001400159f8     libucrt:nlsdata.obj
 0002:00001a00       ??_C@_17CJEDCEPE@?$AAW?$AAe?$AAd?$AA?$AA@ 0000000140015a00     libucrt:nlsdata.obj
 0002:00001a08       ??_C@_17PDPHAADD@?$AAT?$AAh?$AAu?$AA?$AA@ 0000000140015a08     libucrt:nlsdata.obj
 0002:00001a10       ??_C@_17HFOLPPLP@?$AAF?$AAr?$AAi?$AA?$AA@ 0000000140015a10     libucrt:nlsdata.obj
 0002:00001a18       ??_C@_17GGIBDPIH@?$AAS?$AAa?$AAt?$AA?$AA@ 0000000140015a18     libucrt:nlsdata.obj
 0002:00001a20       ??_C@_1O@IHNHDHPB@?$AAS?$AAu?$AAn?$AAd?$AAa?$AAy?$AA?$AA@ 0000000140015a20     libucrt:nlsdata.obj
 0002:00001a30       ??_C@_1O@MMNBFLIA@?$AAM?$AAo?$AAn?$AAd?$AAa?$AAy?$AA?$AA@ 0000000140015a30     libucrt:nlsdata.obj
 0002:00001a40       ??_C@_1BA@ENFBFFEK@?$AAT?$AAu?$AAe?$AAs?$AAd?$AAa?$AAy?$AA?$AA@ 0000000140015a40     libucrt:nlsdata.obj
 0002:00001a50       ??_C@_1BE@EBOGMDOH@?$AAW?$AAe?$AAd?$AAn?$AAe?$AAs?$AAd?$AAa?$AAy?$AA?$AA@ 0000000140015a50     libucrt:nlsdata.obj
 0002:00001a68       ??_C@_1BC@HHMNLIHE@?$AAT?$AAh?$AAu?$AAr?$AAs?$AAd?$AAa?$AAy?$AA?$AA@ 0000000140015a68     libucrt:nlsdata.obj
 0002:00001a80       ??_C@_1O@PDICJHAG@?$AAF?$AAr?$AAi?$AAd?$AAa?$AAy?$AA?$AA@ 0000000140015a80     libucrt:nlsdata.obj
 0002:00001a90       ??_C@_1BC@ENMNNPAJ@?$AAS?$AAa?$AAt?$AAu?$AAr?$AAd?$AAa?$AAy?$AA?$AA@ 0000000140015a90     libucrt:nlsdata.obj
 0002:00001aa8       ??_C@_17DKNBKCHM@?$AAJ?$AAa?$AAn?$AA?$AA@ 0000000140015aa8     libucrt:nlsdata.obj
 0002:00001ab0       ??_C@_17LMDJEKJN@?$AAF?$AAe?$AAb?$AA?$AA@ 0000000140015ab0     libucrt:nlsdata.obj
 0002:00001ab8       ??_C@_17CKNLEDEC@?$AAM?$AAa?$AAr?$AA?$AA@ 0000000140015ab8     libucrt:nlsdata.obj
 0002:00001ac0       ??_C@_17LFPOIHDD@?$AAA?$AAp?$AAr?$AA?$AA@ 0000000140015ac0     libucrt:nlsdata.obj
 0002:00001ac8       ??_C@_17PNNKMEED@?$AAM?$AAa?$AAy?$AA?$AA@ 0000000140015ac8     libucrt:nlsdata.obj
 0002:00001ad0       ??_C@_17KCJGOCPB@?$AAJ?$AAu?$AAn?$AA?$AA@ 0000000140015ad0     libucrt:nlsdata.obj
 0002:00001ad8       ??_C@_17IJPCKHK@?$AAJ?$AAu?$AAl?$AA?$AA@ 0000000140015ad8     libucrt:nlsdata.obj
 0002:00001ae0       ??_C@_17ICPELBCN@?$AAA?$AAu?$AAg?$AA?$AA@ 0000000140015ae0     libucrt:nlsdata.obj
 0002:00001ae8       ??_C@_17HCHCOKMG@?$AAS?$AAe?$AAp?$AA?$AA@ 0000000140015ae8     libucrt:nlsdata.obj
 0002:00001af0       ??_C@_17FNLKOI@?$AAO?$AAc?$AAt?$AA?$AA@ 0000000140015af0     libucrt:nlsdata.obj
 0002:00001af8       ??_C@_17BBDMLCIG@?$AAN?$AAo?$AAv?$AA?$AA@ 0000000140015af8     libucrt:nlsdata.obj
 0002:00001b00       ??_C@_17EGKACKIF@?$AAD?$AAe?$AAc?$AA?$AA@ 0000000140015b00     libucrt:nlsdata.obj
 0002:00001b08       ??_C@_1BA@EFMEIEBA@?$AAJ?$AAa?$AAn?$AAu?$AAa?$AAr?$AAy?$AA?$AA@ 0000000140015b08     libucrt:nlsdata.obj
 0002:00001b18       ??_C@_1BC@JGDDFFAM@?$AAF?$AAe?$AAb?$AAr?$AAu?$AAa?$AAr?$AAy?$AA?$AA@ 0000000140015b18     libucrt:nlsdata.obj
 0002:00001b30       ??_C@_1M@IKEENEDF@?$AAM?$AAa?$AAr?$AAc?$AAh?$AA?$AA@ 0000000140015b30     libucrt:nlsdata.obj
 0002:00001b40       ??_C@_1M@GJNLMHFD@?$AAA?$AAp?$AAr?$AAi?$AAl?$AA?$AA@ 0000000140015b40     libucrt:nlsdata.obj
 0002:00001b50       ??_C@_19EPFLPGAP@?$AAJ?$AAu?$AAn?$AAe?$AA?$AA@ 0000000140015b50     libucrt:nlsdata.obj
 0002:00001b60       ??_C@_19BIFMLPCD@?$AAJ?$AAu?$AAl?$AAy?$AA?$AA@ 0000000140015b60     libucrt:nlsdata.obj
 0002:00001b70       ??_C@_1O@PAHLKOAC@?$AAA?$AAu?$AAg?$AAu?$AAs?$AAt?$AA?$AA@ 0000000140015b70     libucrt:nlsdata.obj
 0002:00001b80       ??_C@_1BE@DKAAMBJL@?$AAS?$AAe?$AAp?$AAt?$AAe?$AAm?$AAb?$AAe?$AAr?$AA?$AA@ 0000000140015b80     libucrt:nlsdata.obj
 0002:00001b98       ??_C@_1BA@EPANDLNG@?$AAO?$AAc?$AAt?$AAo?$AAb?$AAe?$AAr?$AA?$AA@ 0000000140015b98     libucrt:nlsdata.obj
 0002:00001ba8       ??_C@_1BC@BGLIFPF@?$AAN?$AAo?$AAv?$AAe?$AAm?$AAb?$AAe?$AAr?$AA?$AA@ 0000000140015ba8     libucrt:nlsdata.obj
 0002:00001bc0       ??_C@_1BC@FEMKIFH@?$AAD?$AAe?$AAc?$AAe?$AAm?$AAb?$AAe?$AAr?$AA?$AA@ 0000000140015bc0     libucrt:nlsdata.obj
 0002:00001bd4       ??_C@_15ODEHAHHF@?$AAA?$AAM?$AA?$AA@ 0000000140015bd4     libucrt:nlsdata.obj
 0002:00001bdc       ??_C@_15CLMNNGEL@?$AAP?$AAM?$AA?$AA@ 0000000140015bdc     libucrt:nlsdata.obj
 0002:00001be8       ??_C@_1BC@IEBCMHCM@?$AAM?$AAM?$AA?1?$AAd?$AAd?$AA?1?$AAy?$AAy?$AA?$AA@ 0000000140015be8     libucrt:nlsdata.obj
 0002:00001c00       ??_C@_1CI@KNAKOEBC@?$AAd?$AAd?$AAd?$AAd?$AA?0?$AA?5?$AAM?$AAM?$AAM?$AAM?$AA?5?$AAd?$AAd?$AA?0?$AA?5?$AAy?$AAy?$AAy?$AAy?$AA?$AA@ 0000000140015c00     libucrt:nlsdata.obj
 0002:00001c28       ??_C@_1BC@GDGBMEMK@?$AAH?$AAH?$AA?3?$AAm?$AAm?$AA?3?$AAs?$AAs?$AA?$AA@ 0000000140015c28     libucrt:nlsdata.obj
 0002:00001c40       ??_C@_1M@BMHNFIME@?$AAe?$AAn?$AA?9?$AAU?$AAS?$AA?$AA@ 0000000140015c40     libucrt:nlsdata.obj
 0002:00001c70       ??_C@_1M@HPNHIDJI@?$AAj?$AAa?$AA?9?$AAJ?$AAP?$AA?$AA@ 0000000140015c70     libucrt:mbctype.obj
 0002:00001c80       ??_C@_1M@BIBDDEMK@?$AAz?$AAh?$AA?9?$AAC?$AAN?$AA?$AA@ 0000000140015c80     libucrt:mbctype.obj
 0002:00001c90       ??_C@_1M@JLOOOEGK@?$AAk?$AAo?$AA?9?$AAK?$AAR?$AA?$AA@ 0000000140015c90     libucrt:mbctype.obj
 0002:00001ca0       ??_C@_1M@CLNBBOPM@?$AAz?$AAh?$AA?9?$AAT?$AAW?$AA?$AA@ 0000000140015ca0     libucrt:mbctype.obj
 0002:00001d50       ??_C@_1EG@CNNIPFIM@?$AAa?$AAp?$AAi?$AA?9?$AAm?$AAs?$AA?9?$AAw?$AAi?$AAn?$AA?9?$AAa?$AAp?$AAp?$AAm?$AAo?$AAd?$AAe?$AAl?$AA?9?$AAr?$AAu?$AAn?$AAt?$AAi?$AAm?$AAe?$AA?9?$AAl?$AA1?$AA?9?$AA1@ 0000000140015d50     libucrt:winapi_thunks.obj
 0002:00001da0       ??_C@_1EA@JGEFHKEI@?$AAa?$AAp?$AAi?$AA?9?$AAm?$AAs?$AA?9?$AAw?$AAi?$AAn?$AA?9?$AAc?$AAo?$AAr?$AAe?$AA?9?$AAd?$AAa?$AAt?$AAe?$AAt?$AAi?$AAm?$AAe?$AA?9?$AAl?$AA1?$AA?9?$AA1?$AA?9?$AA1?$AA?$AA@ 0000000140015da0     libucrt:winapi_thunks.obj
 0002:00001de0       ??_C@_1DI@GCIAAENM@?$AAa?$AAp?$AAi?$AA?9?$AAm?$AAs?$AA?9?$AAw?$AAi?$AAn?$AA?9?$AAc?$AAo?$AAr?$AAe?$AA?9?$AAf?$AAi?$AAl?$AAe?$AA?9?$AAl?$AA2?$AA?9?$AA1?$AA?9?$AA1?$AA?$AA@ 0000000140015de0     libucrt:winapi_thunks.obj
 0002:00001e20       ??_C@_1EI@MPIAOHOC@?$AAa?$AAp?$AAi?$AA?9?$AAm?$AAs?$AA?9?$AAw?$AAi?$AAn?$AA?9?$AAc?$AAo?$AAr?$AAe?$AA?9?$AAl?$AAo?$AAc?$AAa?$AAl?$AAi?$AAz?$AAa?$AAt?$AAi?$AAo?$AAn?$AA?9?$AAl?$AA1?$AA?9@ 0000000140015e20     libucrt:winapi_thunks.obj
 0002:00001e70       ??_C@_1FK@FPHCKFIE@?$AAa?$AAp?$AAi?$AA?9?$AAm?$AAs?$AA?9?$AAw?$AAi?$AAn?$AA?9?$AAc?$AAo?$AAr?$AAe?$AA?9?$AAl?$AAo?$AAc?$AAa?$AAl?$AAi?$AAz?$AAa?$AAt?$AAi?$AAo?$AAn?$AA?9?$AAo?$AAb?$AAs@ 0000000140015e70     libucrt:winapi_thunks.obj
 0002:00001ed0       ??_C@_1EM@DILCGIIO@?$AAa?$AAp?$AAi?$AA?9?$AAm?$AAs?$AA?9?$AAw?$AAi?$AAn?$AA?9?$AAc?$AAo?$AAr?$AAe?$AA?9?$AAp?$AAr?$AAo?$AAc?$AAe?$AAs?$AAs?$AAt?$AAh?$AAr?$AAe?$AAa?$AAd?$AAs?$AA?9?$AAl@ 0000000140015ed0     libucrt:winapi_thunks.obj
 0002:00001f20       ??_C@_1DM@LNCGDDPN@?$AAa?$AAp?$AAi?$AA?9?$AAm?$AAs?$AA?9?$AAw?$AAi?$AAn?$AA?9?$AAc?$AAo?$AAr?$AAe?$AA?9?$AAs?$AAt?$AAr?$AAi?$AAn?$AAg?$AA?9?$AAl?$AA1?$AA?9?$AA1?$AA?9?$AA0?$AA?$AA@ 0000000140015f20     libucrt:winapi_thunks.obj
 0002:00001f60       ??_C@_1DO@FPAPJEMD@?$AAa?$AAp?$AAi?$AA?9?$AAm?$AAs?$AA?9?$AAw?$AAi?$AAn?$AA?9?$AAc?$AAo?$AAr?$AAe?$AA?9?$AAs?$AAy?$AAs?$AAi?$AAn?$AAf?$AAo?$AA?9?$AAl?$AA1?$AA?9?$AA2?$AA?9?$AA1?$AA?$AA@ 0000000140015f60     libucrt:winapi_thunks.obj
 0002:00001fa0       ??_C@_1DK@NDHNAHIO@?$AAa?$AAp?$AAi?$AA?9?$AAm?$AAs?$AA?9?$AAw?$AAi?$AAn?$AA?9?$AAc?$AAo?$AAr?$AAe?$AA?9?$AAw?$AAi?$AAn?$AAr?$AAt?$AA?9?$AAl?$AA1?$AA?9?$AA1?$AA?9?$AA0?$AA?$AA@ 0000000140015fa0     libucrt:winapi_thunks.obj
 0002:00001fe0       ??_C@_1DM@KGHDGBCM@?$AAa?$AAp?$AAi?$AA?9?$AAm?$AAs?$AA?9?$AAw?$AAi?$AAn?$AA?9?$AAc?$AAo?$AAr?$AAe?$AA?9?$AAx?$AAs?$AAt?$AAa?$AAt?$AAe?$AA?9?$AAl?$AA2?$AA?9?$AA1?$AA?9?$AA0?$AA?$AA@ 0000000140015fe0     libucrt:winapi_thunks.obj
 0002:00002020       ??_C@_1EO@IJIOEFOH@?$AAa?$AAp?$AAi?$AA?9?$AAm?$AAs?$AA?9?$AAw?$AAi?$AAn?$AA?9?$AAr?$AAt?$AAc?$AAo?$AAr?$AAe?$AA?9?$AAn?$AAt?$AAu?$AAs?$AAe?$AAr?$AA?9?$AAw?$AAi?$AAn?$AAd?$AAo?$AAw?$AA?9@ 0000000140016020     libucrt:winapi_thunks.obj
 0002:00002070       ??_C@_1FG@HHGEKANL@?$AAa?$AAp?$AAi?$AA?9?$AAm?$AAs?$AA?9?$AAw?$AAi?$AAn?$AA?9?$AAs?$AAe?$AAc?$AAu?$AAr?$AAi?$AAt?$AAy?$AA?9?$AAs?$AAy?$AAs?$AAt?$AAe?$AAm?$AAf?$AAu?$AAn?$AAc?$AAt?$AAi@ 0000000140016070     libucrt:winapi_thunks.obj
 0002:000020d0       ??_C@_1FG@NCKKOLKO@?$AAe?$AAx?$AAt?$AA?9?$AAm?$AAs?$AA?9?$AAw?$AAi?$AAn?$AA?9?$AAk?$AAe?$AAr?$AAn?$AAe?$AAl?$AA3?$AA2?$AA?9?$AAp?$AAa?$AAc?$AAk?$AAa?$AAg?$AAe?$AA?9?$AAc?$AAu?$AAr?$AAr@ 00000001400160d0     libucrt:winapi_thunks.obj
 0002:00002130       ??_C@_1EG@DBIOJECG@?$AAe?$AAx?$AAt?$AA?9?$AAm?$AAs?$AA?9?$AAw?$AAi?$AAn?$AA?9?$AAn?$AAt?$AAu?$AAs?$AAe?$AAr?$AA?9?$AAd?$AAi?$AAa?$AAl?$AAo?$AAg?$AAb?$AAo?$AAx?$AA?9?$AAl?$AA1?$AA?9?$AA1@ 0000000140016130     libucrt:winapi_thunks.obj
 0002:00002180       ??_C@_1EO@FIHMJCLF@?$AAe?$AAx?$AAt?$AA?9?$AAm?$AAs?$AA?9?$AAw?$AAi?$AAn?$AA?9?$AAn?$AAt?$AAu?$AAs?$AAe?$AAr?$AA?9?$AAw?$AAi?$AAn?$AAd?$AAo?$AAw?$AAs?$AAt?$AAa?$AAt?$AAi?$AAo?$AAn?$AA?9@ 0000000140016180     libucrt:winapi_thunks.obj
 0002:000021d0       ??_C@_1O@BCCLBEOE@?$AAu?$AAs?$AAe?$AAr?$AA3?$AA2?$AA?$AA@ 00000001400161d0     libucrt:winapi_thunks.obj
 0002:00002208       ??_C@_0BE@JOGNEJCI@GetCurrentPackageId?$AA@ 0000000140016208     libucrt:winapi_thunks.obj
 0002:00002230       ??_C@_0O@KKBNKAPF@LCMapStringEx?$AA@ 0000000140016230     libucrt:winapi_thunks.obj
 0002:00002248       ??_C@_0BB@HBDEELFH@LocaleNameToLCID?$AA@ 0000000140016248     libucrt:winapi_thunks.obj
 0002:00002260       __newctype                 0000000140016260     libucrt:ctype.obj
 0002:00002560       __newclmap                 0000000140016560     libucrt:ctype.obj
 0002:000026e0       __newcumap                 00000001400166e0     libucrt:ctype.obj
 0002:00002860       ??_C@_15PJPFLCCM@?$AAu?$AAk?$AA?$AA@ 0000000140016860     libucrt:get_qualified_locale.obj
 0002:00002870       ?large_power_data@?1??multiply_by_power_of_ten@__crt_strtox@@YA_NAEAUbig_integer@2@I@Z@4QBIB 0000000140016870     libucrt:cfout.obj
 0002:00003180       ?large_power_indices@?1??multiply_by_power_of_ten@__crt_strtox@@YA_NAEAUbig_integer@2@I@Z@4QBUunpack_index@?1??12@YA_N0I@Z@B 0000000140017180     libucrt:cfout.obj
 0002:00003218       ?small_powers_of_ten@?6??multiply_by_power_of_ten@__crt_strtox@@YA_NAEAUbig_integer@2@I@Z@4QBIB 0000000140017218     libucrt:cfout.obj
 0002:0000323c       ??_C@_01GBGANLPD@0?$AA@    000000014001723c     libucrt:cfout.obj
 0002:00003240       ??_C@_05DNEBIAHO@1?$CDINF?$AA@ 0000000140017240     libucrt:cfout.obj
 0002:00003248       ??_C@_06IMKFLFPG@1?$CDQNAN?$AA@ 0000000140017248     libucrt:cfout.obj
 0002:00003250       ??_C@_06PGGFOGJG@1?$CDSNAN?$AA@ 0000000140017250     libucrt:cfout.obj
 0002:00003258       ??_C@_05PHHOCPM@1?$CDIND?$AA@ 0000000140017258     libucrt:cfout.obj
 0002:000040a0       ??_C@_15EMKDOKLE@?$AAa?$AAr?$AA?$AA@ 00000001400180a0     libucrt:lcidtoname_downlevel.obj
 0002:000040a8       ??_C@_15KNPADPLH@?$AAb?$AAg?$AA?$AA@ 00000001400180a8     libucrt:lcidtoname_downlevel.obj
 0002:000040b0       ??_C@_15EDMHLDMO@?$AAc?$AAa?$AA?$AA@ 00000001400180b0     libucrt:lcidtoname_downlevel.obj
 0002:000040b8       ??_C@_1O@BPEAJADD@?$AAz?$AAh?$AA?9?$AAC?$AAH?$AAS?$AA?$AA@ 00000001400180b8     libucrt:lcidtoname_downlevel.obj
 0002:000040c8       ??_C@_15LJNHCMNK@?$AAc?$AAs?$AA?$AA@ 00000001400180c8     libucrt:lcidtoname_downlevel.obj
 0002:000040d0       ??_C@_15FOMCIDHG@?$AAd?$AAa?$AA?$AA@ 00000001400180d0     libucrt:lcidtoname_downlevel.obj
 0002:000040d8       ??_C@_15NBKABECB@?$AAd?$AAe?$AA?$AA@ 00000001400180d8     libucrt:lcidtoname_downlevel.obj
 0002:000040e0       ??_C@_15GHPEIIAO@?$AAe?$AAl?$AA?$AA@ 00000001400180e0     libucrt:lcidtoname_downlevel.obj
 0002:000040e8       ??_C@_15MNPNEAIF@?$AAe?$AAn?$AA?$AA@ 00000001400180e8     libucrt:lcidtoname_downlevel.obj
 0002:000040f0       ??_C@_15GPIOMPMH@?$AAe?$AAs?$AA?$AA@ 00000001400180f0     libucrt:lcidtoname_downlevel.obj
 0002:000040f8       ??_C@_15NGLOAKJC@?$AAf?$AAi?$AA?$AA@ 00000001400180f8     libucrt:lcidtoname_downlevel.obj
 0002:00004100       ??_C@_15FBKGNKAM@?$AAf?$AAr?$AA?$AA@ 0000000140018100     libucrt:lcidtoname_downlevel.obj
 0002:00004108       ??_C@_15KGGCNEFK@?$AAh?$AAe?$AA?$AA@ 0000000140018108     libucrt:lcidtoname_downlevel.obj
 0002:00004110       ??_C@_15PGHLIDMF@?$AAh?$AAu?$AA?$AA@ 0000000140018110     libucrt:lcidtoname_downlevel.obj
 0002:00004118       ??_C@_15BIEMAPLM@?$AAi?$AAs?$AA?$AA@ 0000000140018118     libucrt:lcidtoname_downlevel.obj
 0002:00004120       ??_C@_15IFJLDHAF@?$AAi?$AAt?$AA?$AA@ 0000000140018120     libucrt:lcidtoname_downlevel.obj
 0002:00004128       ??_C@_15GEMIOCAG@?$AAj?$AAa?$AA?$AA@ 0000000140018128     libucrt:lcidtoname_downlevel.obj
 0002:00004130       ??_C@_15EPELEGJA@?$AAk?$AAo?$AA?$AA@ 0000000140018130     libucrt:lcidtoname_downlevel.obj
 0002:00004138       ??_C@_15NDDHIMN@?$AAn?$AAl?$AA?$AA@ 0000000140018138     libucrt:lcidtoname_downlevel.obj
 0002:00004140       ??_C@_15BPIGNHCD@?$AAn?$AAo?$AA?$AA@ 0000000140018140     libucrt:lcidtoname_downlevel.obj
 0002:00004148       ??_C@_15DEOPBLCG@?$AAp?$AAl?$AA?$AA@ 0000000140018148     libucrt:lcidtoname_downlevel.obj
 0002:00004150       ??_C@_15KBECGEFG@?$AAp?$AAt?$AA?$AA@ 0000000140018150     libucrt:lcidtoname_downlevel.obj
 0002:00004158       ??_C@_15GLJCBFMD@?$AAr?$AAo?$AA?$AA@ 0000000140018158     libucrt:lcidtoname_downlevel.obj
 0002:00004160       ??_C@_15FEDGKCDI@?$AAr?$AAu?$AA?$AA@ 0000000140018160     libucrt:lcidtoname_downlevel.obj
 0002:00004168       ??_C@_15GLKMLLHM@?$AAh?$AAr?$AA?$AA@ 0000000140018168     libucrt:lcidtoname_downlevel.obj
 0002:00004170       ??_C@_15CPKMFBDB@?$AAs?$AAk?$AA?$AA@ 0000000140018170     libucrt:lcidtoname_downlevel.obj
 0002:00004178       ??_C@_15BAAIOGMK@?$AAs?$AAq?$AA?$AA@ 0000000140018178     libucrt:lcidtoname_downlevel.obj
 0002:00004180       ??_C@_15INNPNOHD@?$AAs?$AAv?$AA?$AA@ 0000000140018180     libucrt:lcidtoname_downlevel.obj
 0002:00004188       ??_C@_15CABMMOGH@?$AAt?$AAh?$AA?$AA@ 0000000140018188     libucrt:lcidtoname_downlevel.obj
 0002:00004190       ??_C@_15BPLIHJJM@?$AAt?$AAr?$AA?$AA@ 0000000140018190     libucrt:lcidtoname_downlevel.obj
 0002:00004198       ??_C@_15NEOEKKDJ@?$AAu?$AAr?$AA?$AA@ 0000000140018198     libucrt:lcidtoname_downlevel.obj
 0002:000041a0       ??_C@_15NFICGAJK@?$AAi?$AAd?$AA?$AA@ 00000001400181a0     libucrt:lcidtoname_downlevel.obj
 0002:000041a8       ??_C@_15HPJPHDM@?$AAb?$AAe?$AA?$AA@ 00000001400181a8     libucrt:lcidtoname_downlevel.obj
 0002:000041b0       ??_C@_15LCHLGJII@?$AAs?$AAl?$AA?$AA@ 00000001400181b0     libucrt:lcidtoname_downlevel.obj
 0002:000041b8       ??_C@_15PCFJPHHO@?$AAe?$AAt?$AA?$AA@ 00000001400181b8     libucrt:lcidtoname_downlevel.obj
 0002:000041c0       ??_C@_15HPFPGODN@?$AAl?$AAv?$AA?$AA@ 00000001400181c0     libucrt:lcidtoname_downlevel.obj
 0002:000041c8       ??_C@_15NFFGKGLG@?$AAl?$AAt?$AA?$AA@ 00000001400181c8     libucrt:lcidtoname_downlevel.obj
 0002:000041d0       ??_C@_15BDAKCCHN@?$AAf?$AAa?$AA?$AA@ 00000001400181d0     libucrt:lcidtoname_downlevel.obj
 0002:000041d8       ??_C@_15NFGIAIAJ@?$AAv?$AAi?$AA?$AA@ 00000001400181d8     libucrt:lcidtoname_downlevel.obj
 0002:000041e0       ??_C@_15LMKNDMHN@?$AAh?$AAy?$AA?$AA@ 00000001400181e0     libucrt:lcidtoname_downlevel.obj
 0002:000041e8       ??_C@_15IJBHMCFL@?$AAa?$AAz?$AA?$AA@ 00000001400181e8     libucrt:lcidtoname_downlevel.obj
 0002:000041f0       ??_C@_15EKOFJABL@?$AAe?$AAu?$AA?$AA@ 00000001400181f0     libucrt:lcidtoname_downlevel.obj
 0002:000041f8       ??_C@_15BGHADCNK@?$AAm?$AAk?$AA?$AA@ 00000001400181f8     libucrt:lcidtoname_downlevel.obj
 0002:00004200       ??_C@_15JDNICKHM@?$AAa?$AAf?$AA?$AA@ 0000000140018200     libucrt:lcidtoname_downlevel.obj
 0002:00004208       ??_C@_15KPJEDBKD@?$AAk?$AAa?$AA?$AA@ 0000000140018208     libucrt:lcidtoname_downlevel.obj
 0002:00004210       ??_C@_15PDNFFFEO@?$AAf?$AAo?$AA?$AA@ 0000000140018210     libucrt:lcidtoname_downlevel.obj
 0002:00004218       ??_C@_15OMLEGLOC@?$AAh?$AAi?$AA?$AA@ 0000000140018218     libucrt:lcidtoname_downlevel.obj
 0002:00004220       ??_C@_15IDNNENKK@?$AAm?$AAs?$AA?$AA@ 0000000140018220     libucrt:lcidtoname_downlevel.obj
 0002:00004228       ??_C@_15MACJNBMH@?$AAk?$AAk?$AA?$AA@ 0000000140018228     libucrt:lcidtoname_downlevel.obj
 0002:00004230       ??_C@_15DKDJEOND@?$AAk?$AAy?$AA?$AA@ 0000000140018230     libucrt:lcidtoname_downlevel.obj
 0002:00004238       ??_C@_15DFGDLJBG@?$AAs?$AAw?$AA?$AA@ 0000000140018238     libucrt:lcidtoname_downlevel.obj
 0002:00004240       ??_C@_15BBFAICNG@?$AAu?$AAz?$AA?$AA@ 0000000140018240     libucrt:lcidtoname_downlevel.obj
 0002:00004248       ??_C@_15DKNDCGEA@?$AAt?$AAt?$AA?$AA@ 0000000140018248     libucrt:lcidtoname_downlevel.obj
 0002:00004250       ??_C@_15MGIFMDPL@?$AAp?$AAa?$AA?$AA@ 0000000140018250     libucrt:lcidtoname_downlevel.obj
 0002:00004258       ??_C@_15HCNDBBA@?$AAg?$AAu?$AA?$AA@ 0000000140018258     libucrt:lcidtoname_downlevel.obj
 0002:00004260       ??_C@_15FNBEIBON@?$AAt?$AAa?$AA?$AA@ 0000000140018260     libucrt:lcidtoname_downlevel.obj
 0002:00004268       ??_C@_15NCHGBGLK@?$AAt?$AAe?$AA?$AA@ 0000000140018268     libucrt:lcidtoname_downlevel.obj
 0002:00004270       ??_C@_15PHPHCBPF@?$AAk?$AAn?$AA?$AA@ 0000000140018270     libucrt:lcidtoname_downlevel.obj
 0002:00004278       ??_C@_15DLGBCKMP@?$AAm?$AAr?$AA?$AA@ 0000000140018278     libucrt:lcidtoname_downlevel.obj
 0002:00004280       ??_C@_15EABBLBFF@?$AAs?$AAa?$AA?$AA@ 0000000140018280     libucrt:lcidtoname_downlevel.obj
 0002:00004288       ??_C@_15CBKOMCOI@?$AAm?$AAn?$AA?$AA@ 0000000140018288     libucrt:lcidtoname_downlevel.obj
 0002:00004290       ??_C@_15CKDMCJAF@?$AAg?$AAl?$AA?$AA@ 0000000140018290     libucrt:lcidtoname_downlevel.obj
 0002:00004298       ??_C@_17CNJFBPG@?$AAk?$AAo?$AAk?$AA?$AA@ 0000000140018298     libucrt:lcidtoname_downlevel.obj
 0002:000042a0       ??_C@_17FFBJICPL@?$AAs?$AAy?$AAr?$AA?$AA@ 00000001400182a0     libucrt:lcidtoname_downlevel.obj
 0002:000042a8       ??_C@_17KPNDCPAF@?$AAd?$AAi?$AAv?$AA?$AA@ 00000001400182a8     libucrt:lcidtoname_downlevel.obj
 0002:000042b0       ??_C@_1M@OKAHONE@?$AAa?$AAr?$AA?9?$AAS?$AAA?$AA?$AA@ 00000001400182b0     libucrt:lcidtoname_downlevel.obj
 0002:000042c0       ??_C@_1M@FFFIGIGK@?$AAb?$AAg?$AA?9?$AAB?$AAG?$AA?$AA@ 00000001400182c0     libucrt:lcidtoname_downlevel.obj
 0002:000042d0       ??_C@_1M@BJNKEDC@?$AAc?$AAa?$AA?9?$AAE?$AAS?$AA?$AA@ 00000001400182d0     libucrt:lcidtoname_downlevel.obj
 0002:000042e0       ??_C@_1M@IJJHFJHA@?$AAc?$AAs?$AA?9?$AAC?$AAZ?$AA?$AA@ 00000001400182e0     libucrt:lcidtoname_downlevel.obj
 0002:000042f0       ??_C@_1M@CLPEOBGI@?$AAd?$AAa?$AA?9?$AAD?$AAK?$AA?$AA@ 00000001400182f0     libucrt:lcidtoname_downlevel.obj
 0002:00004300       ??_C@_1M@MCMADGCB@?$AAd?$AAe?$AA?9?$AAD?$AAE?$AA?$AA@ 0000000140018300     libucrt:lcidtoname_downlevel.obj
 0002:00004310       ??_C@_1M@OOCKEMAM@?$AAe?$AAl?$AA?9?$AAG?$AAR?$AA?$AA@ 0000000140018310     libucrt:lcidtoname_downlevel.obj
 0002:00004320       ??_C@_1M@DDNJFGID@?$AAf?$AAi?$AA?9?$AAF?$AAI?$AA?$AA@ 0000000140018320     libucrt:lcidtoname_downlevel.obj
 0002:00004330       ??_C@_1M@GLIPPMAC@?$AAf?$AAr?$AA?9?$AAF?$AAR?$AA?$AA@ 0000000140018330     libucrt:lcidtoname_downlevel.obj
 0002:00004340       ??_C@_1M@GFMCHPE@?$AAh?$AAe?$AA?9?$AAI?$AAL?$AA?$AA@ 0000000140018340     libucrt:lcidtoname_downlevel.obj
 0002:00004350       ??_C@_1M@MHLPGNKM@?$AAh?$AAu?$AA?9?$AAH?$AAU?$AA?$AA@ 0000000140018350     libucrt:lcidtoname_downlevel.obj
 0002:00004360       ??_C@_1M@LPDDNNPN@?$AAi?$AAs?$AA?9?$AAI?$AAS?$AA?$AA@ 0000000140018360     libucrt:lcidtoname_downlevel.obj
 0002:00004370       ??_C@_1M@MADIPODN@?$AAi?$AAt?$AA?9?$AAI?$AAT?$AA?$AA@ 0000000140018370     libucrt:lcidtoname_downlevel.obj
 0002:00004380       ??_C@_1M@IHBJJGG@?$AAn?$AAl?$AA?9?$AAN?$AAL?$AA?$AA@ 0000000140018380     libucrt:lcidtoname_downlevel.obj
 0002:00004390       ??_C@_1M@EANAGDL@?$AAn?$AAb?$AA?9?$AAN?$AAO?$AA?$AA@ 0000000140018390     libucrt:lcidtoname_downlevel.obj
 0002:000043a0       ??_C@_1M@NEIEMEGP@?$AAp?$AAl?$AA?9?$AAP?$AAL?$AA?$AA@ 00000001400183a0     libucrt:lcidtoname_downlevel.obj
 0002:000043b0       ??_C@_1M@BOCFIGEP@?$AAp?$AAt?$AA?9?$AAB?$AAR?$AA?$AA@ 00000001400183b0     libucrt:lcidtoname_downlevel.obj
 0002:000043c0       ??_C@_1M@IMPFOPBG@?$AAr?$AAo?$AA?9?$AAR?$AAO?$AA?$AA@ 00000001400183c0     libucrt:lcidtoname_downlevel.obj
 0002:000043d0       ??_C@_1M@IDNNEJMM@?$AAr?$AAu?$AA?9?$AAR?$AAU?$AA?$AA@ 00000001400183d0     libucrt:lcidtoname_downlevel.obj
 0002:000043e0       ??_C@_1M@LILEEOGM@?$AAh?$AAr?$AA?9?$AAH?$AAR?$AA?$AA@ 00000001400183e0     libucrt:lcidtoname_downlevel.obj
 0002:000043f0       ??_C@_1M@FKIFEHPB@?$AAs?$AAk?$AA?9?$AAS?$AAK?$AA?$AA@ 00000001400183f0     libucrt:lcidtoname_downlevel.obj
 0002:00004400       ??_C@_1M@LJMAMNPJ@?$AAs?$AAq?$AA?9?$AAA?$AAL?$AA?$AA@ 0000000140018400     libucrt:lcidtoname_downlevel.obj
 0002:00004410       ??_C@_1M@GIAKDKJK@?$AAs?$AAv?$AA?9?$AAS?$AAE?$AA?$AA@ 0000000140018410     libucrt:lcidtoname_downlevel.obj
 0002:00004420       ??_C@_1M@MKJKIKCL@?$AAt?$AAh?$AA?9?$AAT?$AAH?$AA?$AA@ 0000000140018420     libucrt:lcidtoname_downlevel.obj
 0002:00004430       ??_C@_1M@MFLCCMPB@?$AAt?$AAr?$AA?9?$AAT?$AAR?$AA?$AA@ 0000000140018430     libucrt:lcidtoname_downlevel.obj
 0002:00004440       ??_C@_1M@OIJHDKJN@?$AAu?$AAr?$AA?9?$AAP?$AAK?$AA?$AA@ 0000000140018440     libucrt:lcidtoname_downlevel.obj
 0002:00004450       ??_C@_1M@LHIPCIEK@?$AAi?$AAd?$AA?9?$AAI?$AAD?$AA?$AA@ 0000000140018450     libucrt:lcidtoname_downlevel.obj
 0002:00004460       ??_C@_1M@MFMOBGI@?$AAu?$AAk?$AA?9?$AAU?$AAA?$AA?$AA@ 0000000140018460     libucrt:lcidtoname_downlevel.obj
 0002:00004470       ??_C@_1M@OBGLJIPL@?$AAb?$AAe?$AA?9?$AAB?$AAY?$AA?$AA@ 0000000140018470     libucrt:lcidtoname_downlevel.obj
 0002:00004480       ??_C@_1M@BCFAJEAD@?$AAs?$AAl?$AA?9?$AAS?$AAI?$AA?$AA@ 0000000140018480     libucrt:lcidtoname_downlevel.obj
 0002:00004490       ??_C@_1M@FKFFEDDN@?$AAe?$AAt?$AA?9?$AAE?$AAE?$AA?$AA@ 0000000140018490     libucrt:lcidtoname_downlevel.obj
 0002:000044a0       ??_C@_1M@KGKKAACI@?$AAl?$AAv?$AA?9?$AAL?$AAV?$AA?$AA@ 00000001400184a0     libucrt:lcidtoname_downlevel.obj
 0002:000044b0       ??_C@_1M@IFGBIJO@?$AAl?$AAt?$AA?9?$AAL?$AAT?$AA?$AA@ 00000001400184b0     libucrt:lcidtoname_downlevel.obj
 0002:000044c0       ??_C@_1M@FGEAHEDM@?$AAf?$AAa?$AA?9?$AAI?$AAR?$AA?$AA@ 00000001400184c0     libucrt:lcidtoname_downlevel.obj
 0002:000044d0       ??_C@_1M@KBMAIBFN@?$AAv?$AAi?$AA?9?$AAV?$AAN?$AA?$AA@ 00000001400184d0     libucrt:lcidtoname_downlevel.obj
 0002:000044e0       ??_C@_1M@GPCBKDJK@?$AAh?$AAy?$AA?9?$AAA?$AAM?$AA?$AA@ 00000001400184e0     libucrt:lcidtoname_downlevel.obj
 0002:000044f0       ??_C@_1BG@BECMDDJB@?$AAa?$AAz?$AA?9?$AAA?$AAZ?$AA?9?$AAL?$AAa?$AAt?$AAn?$AA?$AA@ 00000001400184f0     libucrt:lcidtoname_downlevel.obj
 0002:00004508       ??_C@_1M@MAOFCAEA@?$AAe?$AAu?$AA?9?$AAE?$AAS?$AA?$AA@ 0000000140018508     libucrt:lcidtoname_downlevel.obj
 0002:00004518       ??_C@_1M@IGHABKPI@?$AAm?$AAk?$AA?9?$AAM?$AAK?$AA?$AA@ 0000000140018518     libucrt:lcidtoname_downlevel.obj
 0002:00004528       ??_C@_1M@IAIGNEJG@?$AAt?$AAn?$AA?9?$AAZ?$AAA?$AA?$AA@ 0000000140018528     libucrt:lcidtoname_downlevel.obj
 0002:00004538       ??_C@_1M@IIJCOJFA@?$AAx?$AAh?$AA?9?$AAZ?$AAA?$AA?$AA@ 0000000140018538     libucrt:lcidtoname_downlevel.obj
 0002:00004548       ??_C@_1M@LGPJHNJH@?$AAz?$AAu?$AA?9?$AAZ?$AAA?$AA?$AA@ 0000000140018548     libucrt:lcidtoname_downlevel.obj
 0002:00004558       ??_C@_1M@HOKAOIO@?$AAa?$AAf?$AA?9?$AAZ?$AAA?$AA?$AA@ 0000000140018558     libucrt:lcidtoname_downlevel.obj
 0002:00004568       ??_C@_1M@DPCLHLIE@?$AAk?$AAa?$AA?9?$AAG?$AAE?$AA?$AA@ 0000000140018568     libucrt:lcidtoname_downlevel.obj
 0002:00004578       ??_C@_1M@BLKMHJBI@?$AAf?$AAo?$AA?9?$AAF?$AAO?$AA?$AA@ 0000000140018578     libucrt:lcidtoname_downlevel.obj
 0002:00004588       ??_C@_1M@LGGJAPPB@?$AAh?$AAi?$AA?9?$AAI?$AAN?$AA?$AA@ 0000000140018588     libucrt:lcidtoname_downlevel.obj
 0002:00004598       ??_C@_1M@FIKPIHFE@?$AAm?$AAt?$AA?9?$AAM?$AAT?$AA?$AA@ 0000000140018598     libucrt:lcidtoname_downlevel.obj
 0002:000045a8       ??_C@_1M@HEGGPBFA@?$AAs?$AAe?$AA?9?$AAN?$AAO?$AA?$AA@ 00000001400185a8     libucrt:lcidtoname_downlevel.obj
 0002:000045b8       ??_C@_1M@EIBJEEPA@?$AAm?$AAs?$AA?9?$AAM?$AAY?$AA?$AA@ 00000001400185b8     libucrt:lcidtoname_downlevel.obj
 0002:000045c8       ??_C@_1M@FHLBGMPP@?$AAk?$AAk?$AA?9?$AAK?$AAZ?$AA?$AA@ 00000001400185c8     libucrt:lcidtoname_downlevel.obj
 0002:000045d8       ??_C@_1M@NGJJLCGI@?$AAk?$AAy?$AA?9?$AAK?$AAG?$AA?$AA@ 00000001400185d8     libucrt:lcidtoname_downlevel.obj
 0002:000045e8       ??_C@_1M@GIENNBFC@?$AAs?$AAw?$AA?9?$AAK?$AAE?$AA?$AA@ 00000001400185e8     libucrt:lcidtoname_downlevel.obj
 0002:000045f8       ??_C@_1BG@NDGMJIMJ@?$AAu?$AAz?$AA?9?$AAU?$AAZ?$AA?9?$AAL?$AAa?$AAt?$AAn?$AA?$AA@ 00000001400185f8     libucrt:lcidtoname_downlevel.obj
 0002:00004610       ??_C@_1M@IDCCIHBC@?$AAt?$AAt?$AA?9?$AAR?$AAU?$AA?$AA@ 0000000140018610     libucrt:lcidtoname_downlevel.obj
 0002:00004620       ??_C@_1M@LOICPMOJ@?$AAb?$AAn?$AA?9?$AAI?$AAN?$AA?$AA@ 0000000140018620     libucrt:lcidtoname_downlevel.obj
 0002:00004630       ??_C@_1M@KPKKNEAH@?$AAp?$AAa?$AA?9?$AAI?$AAN?$AA?$AA@ 0000000140018630     libucrt:lcidtoname_downlevel.obj
 0002:00004640       ??_C@_1M@PJGPPBOG@?$AAg?$AAu?$AA?9?$AAI?$AAN?$AA?$AA@ 0000000140018640     libucrt:lcidtoname_downlevel.obj
 0002:00004650       ??_C@_1M@KMKMOPHI@?$AAt?$AAa?$AA?9?$AAI?$AAN?$AA?$AA@ 0000000140018650     libucrt:lcidtoname_downlevel.obj
 0002:00004660       ??_C@_1M@KFEHEPAC@?$AAt?$AAe?$AA?9?$AAI?$AAN?$AA?$AA@ 0000000140018660     libucrt:lcidtoname_downlevel.obj
 0002:00004670       ??_C@_1M@CDCLMGHI@?$AAk?$AAn?$AA?9?$AAI?$AAN?$AA?$AA@ 0000000140018670     libucrt:lcidtoname_downlevel.obj
 0002:00004680       ??_C@_1M@MIODLDKF@?$AAm?$AAl?$AA?9?$AAI?$AAN?$AA?$AA@ 0000000140018680     libucrt:lcidtoname_downlevel.obj
 0002:00004690       ??_C@_1M@PBIEACPO@?$AAm?$AAr?$AA?9?$AAI?$AAN?$AA?$AA@ 0000000140018690     libucrt:lcidtoname_downlevel.obj
 0002:000046a0       ??_C@_1M@NIDEAGPH@?$AAs?$AAa?$AA?9?$AAI?$AAN?$AA?$AA@ 00000001400186a0     libucrt:lcidtoname_downlevel.obj
 0002:000046b0       ??_C@_1M@FHIHCBIO@?$AAm?$AAn?$AA?9?$AAM?$AAN?$AA?$AA@ 00000001400186b0     libucrt:lcidtoname_downlevel.obj
 0002:000046c0       ??_C@_1M@JAIJPENP@?$AAc?$AAy?$AA?9?$AAG?$AAB?$AA?$AA@ 00000001400186c0     libucrt:lcidtoname_downlevel.obj
 0002:000046d0       ??_C@_1M@PHGFBEPN@?$AAg?$AAl?$AA?9?$AAE?$AAS?$AA?$AA@ 00000001400186d0     libucrt:lcidtoname_downlevel.obj
 0002:000046e0       ??_C@_1O@KPIPDNCP@?$AAk?$AAo?$AAk?$AA?9?$AAI?$AAN?$AA?$AA@ 00000001400186e0     libucrt:lcidtoname_downlevel.obj
 0002:000046f0       ??_C@_1O@KNHJLDJA@?$AAs?$AAy?$AAr?$AA?9?$AAS?$AAY?$AA?$AA@ 00000001400186f0     libucrt:lcidtoname_downlevel.obj
 0002:00004700       ??_C@_1O@MKEKBLAH@?$AAd?$AAi?$AAv?$AA?9?$AAM?$AAV?$AA?$AA@ 0000000140018700     libucrt:lcidtoname_downlevel.obj
 0002:00004710       ??_C@_1O@OHDCKDDF@?$AAq?$AAu?$AAz?$AA?9?$AAB?$AAO?$AA?$AA@ 0000000140018710     libucrt:lcidtoname_downlevel.obj
 0002:00004720       ??_C@_1M@LEPJNLFD@?$AAn?$AAs?$AA?9?$AAZ?$AAA?$AA?$AA@ 0000000140018720     libucrt:lcidtoname_downlevel.obj
 0002:00004730       ??_C@_1M@OMLEIIJB@?$AAm?$AAi?$AA?9?$AAN?$AAZ?$AA?$AA@ 0000000140018730     libucrt:lcidtoname_downlevel.obj
 0002:00004740       ??_C@_1M@PMPEAILG@?$AAa?$AAr?$AA?9?$AAI?$AAQ?$AA?$AA@ 0000000140018740     libucrt:lcidtoname_downlevel.obj
 0002:00004750       ??_C@_1M@CNKPNOEE@?$AAd?$AAe?$AA?9?$AAC?$AAH?$AA?$AA@ 0000000140018750     libucrt:lcidtoname_downlevel.obj
 0002:00004760       ??_C@_1M@LKMGMLKO@?$AAe?$AAn?$AA?9?$AAG?$AAB?$AA?$AA@ 0000000140018760     libucrt:lcidtoname_downlevel.obj
 0002:00004770       ??_C@_1M@PGKJFFGL@?$AAe?$AAs?$AA?9?$AAM?$AAX?$AA?$AA@ 0000000140018770     libucrt:lcidtoname_downlevel.obj
 0002:00004780       ??_C@_1M@DNNANBDC@?$AAf?$AAr?$AA?9?$AAB?$AAE?$AA?$AA@ 0000000140018780     libucrt:lcidtoname_downlevel.obj
 0002:00004790       ??_C@_1M@HLGMDFHM@?$AAi?$AAt?$AA?9?$AAC?$AAH?$AA?$AA@ 0000000140018790     libucrt:lcidtoname_downlevel.obj
 0002:000047a0       ??_C@_1M@CLLBGJH@?$AAn?$AAl?$AA?9?$AAB?$AAE?$AA?$AA@ 00000001400187a0     libucrt:lcidtoname_downlevel.obj
 0002:000047b0       ??_C@_1M@BODBOGLF@?$AAn?$AAn?$AA?9?$AAN?$AAO?$AA?$AA@ 00000001400187b0     libucrt:lcidtoname_downlevel.obj
 0002:000047c0       ??_C@_1M@HFFAHKAD@?$AAp?$AAt?$AA?9?$AAP?$AAT?$AA?$AA@ 00000001400187c0     libucrt:lcidtoname_downlevel.obj
 0002:000047d0       ??_C@_1BG@LNOAKHIE@?$AAs?$AAr?$AA?9?$AAS?$AAP?$AA?9?$AAL?$AAa?$AAt?$AAn?$AA?$AA@ 00000001400187d0     libucrt:lcidtoname_downlevel.obj
 0002:000047e8       ??_C@_1M@HBMHBGAK@?$AAs?$AAv?$AA?9?$AAF?$AAI?$AA?$AA@ 00000001400187e8     libucrt:lcidtoname_downlevel.obj
 0002:000047f8       ??_C@_1BG@DGCJGJBE@?$AAa?$AAz?$AA?9?$AAA?$AAZ?$AA?9?$AAC?$AAy?$AAr?$AAl?$AA?$AA@ 00000001400187f8     libucrt:lcidtoname_downlevel.obj
 0002:00004810       ??_C@_1M@KEJDAAHB@?$AAs?$AAe?$AA?9?$AAS?$AAE?$AA?$AA@ 0000000140018810     libucrt:lcidtoname_downlevel.obj
 0002:00004820       ??_C@_1M@HEIBJJAD@?$AAm?$AAs?$AA?9?$AAB?$AAN?$AA?$AA@ 0000000140018820     libucrt:lcidtoname_downlevel.obj
 0002:00004830       ??_C@_1BG@PBGJMCEM@?$AAu?$AAz?$AA?9?$AAU?$AAZ?$AA?9?$AAC?$AAy?$AAr?$AAl?$AA?$AA@ 0000000140018830     libucrt:lcidtoname_downlevel.obj
 0002:00004848       ??_C@_1O@LAOBCMDF@?$AAq?$AAu?$AAz?$AA?9?$AAE?$AAC?$AA?$AA@ 0000000140018848     libucrt:lcidtoname_downlevel.obj
 0002:00004858       ??_C@_1M@POEEMAIO@?$AAa?$AAr?$AA?9?$AAE?$AAG?$AA?$AA@ 0000000140018858     libucrt:lcidtoname_downlevel.obj
 0002:00004868       ??_C@_1M@EFAKDEDL@?$AAz?$AAh?$AA?9?$AAH?$AAK?$AA?$AA@ 0000000140018868     libucrt:lcidtoname_downlevel.obj
 0002:00004878       ??_C@_1M@HKKIJHGI@?$AAd?$AAe?$AA?9?$AAA?$AAT?$AA?$AA@ 0000000140018878     libucrt:lcidtoname_downlevel.obj
 0002:00004888       ??_C@_1M@KBFBEHJF@?$AAe?$AAn?$AA?9?$AAA?$AAU?$AA?$AA@ 0000000140018888     libucrt:lcidtoname_downlevel.obj
 0002:00004898       ??_C@_1M@MNPLFAAH@?$AAe?$AAs?$AA?9?$AAE?$AAS?$AA?$AA@ 0000000140018898     libucrt:lcidtoname_downlevel.obj
 0002:000048a8       ??_C@_1M@HJOOJFMA@?$AAf?$AAr?$AA?9?$AAC?$AAA?$AA?$AA@ 00000001400188a8     libucrt:lcidtoname_downlevel.obj
 0002:000048b8       ??_C@_1BG@JPOFPNAB@?$AAs?$AAr?$AA?9?$AAS?$AAP?$AA?9?$AAC?$AAy?$AAr?$AAl?$AA?$AA@ 00000001400188b8     libucrt:lcidtoname_downlevel.obj
 0002:000048d0       ??_C@_1M@LNFOCMOB@?$AAs?$AAe?$AA?9?$AAF?$AAI?$AA?$AA@ 00000001400188d0     libucrt:lcidtoname_downlevel.obj
 0002:000048e0       ??_C@_1O@MGJBOAMB@?$AAq?$AAu?$AAz?$AA?9?$AAP?$AAE?$AA?$AA@ 00000001400188e0     libucrt:lcidtoname_downlevel.obj
 0002:000048f0       ??_C@_1M@GJINLBOK@?$AAa?$AAr?$AA?9?$AAL?$AAY?$AA?$AA@ 00000001400188f0     libucrt:lcidtoname_downlevel.obj
 0002:00004900       ??_C@_1M@GGMNHJNL@?$AAz?$AAh?$AA?9?$AAS?$AAG?$AA?$AA@ 0000000140018900     libucrt:lcidtoname_downlevel.obj
 0002:00004910       ??_C@_1M@HOIKODND@?$AAd?$AAe?$AA?9?$AAL?$AAU?$AA?$AA@ 0000000140018910     libucrt:lcidtoname_downlevel.obj
 0002:00004920       ??_C@_1M@DDOCCGFG@?$AAe?$AAn?$AA?9?$AAC?$AAA?$AA?$AA@ 0000000140018920     libucrt:lcidtoname_downlevel.obj
 0002:00004930       ??_C@_1M@BNOEMJLF@?$AAe?$AAs?$AA?9?$AAG?$AAT?$AA?$AA@ 0000000140018930     libucrt:lcidtoname_downlevel.obj
 0002:00004940       ??_C@_1M@EOGNKEK@?$AAf?$AAr?$AA?9?$AAC?$AAH?$AA?$AA@ 0000000140018940     libucrt:lcidtoname_downlevel.obj
 0002:00004950       ??_C@_1M@FLIDJFHL@?$AAh?$AAr?$AA?9?$AAB?$AAA?$AA?$AA@ 0000000140018950     libucrt:lcidtoname_downlevel.obj
 0002:00004960       ??_C@_1O@FMCELNAJ@?$AAs?$AAm?$AAj?$AA?9?$AAN?$AAO?$AA?$AA@ 0000000140018960     libucrt:lcidtoname_downlevel.obj
 0002:00004970       ??_C@_1M@JHGLJMGJ@?$AAa?$AAr?$AA?9?$AAD?$AAZ?$AA?$AA@ 0000000140018970     libucrt:lcidtoname_downlevel.obj
 0002:00004980       ??_C@_1M@JKKFDCNP@?$AAz?$AAh?$AA?9?$AAM?$AAO?$AA?$AA@ 0000000140018980     libucrt:lcidtoname_downlevel.obj
 0002:00004990       ??_C@_1M@GEEFALPE@?$AAd?$AAe?$AA?9?$AAL?$AAI?$AA?$AA@ 0000000140018990     libucrt:lcidtoname_downlevel.obj
 0002:000049a0       ??_C@_1M@IGEOFBG@?$AAe?$AAn?$AA?9?$AAN?$AAZ?$AA?$AA@ 00000001400189a0     libucrt:lcidtoname_downlevel.obj
 0002:000049b0       ??_C@_1M@KDBONEHP@?$AAe?$AAs?$AA?9?$AAC?$AAR?$AA?$AA@ 00000001400189b0     libucrt:lcidtoname_downlevel.obj
 0002:000049c0       ??_C@_1M@FHMDOHNN@?$AAf?$AAr?$AA?9?$AAL?$AAU?$AA?$AA@ 00000001400189c0     libucrt:lcidtoname_downlevel.obj
 0002:000049d0       ??_C@_1BG@NFKKMAFG@?$AAb?$AAs?$AA?9?$AAB?$AAA?$AA?9?$AAL?$AAa?$AAt?$AAn?$AA?$AA@ 00000001400189d0     libucrt:lcidtoname_downlevel.obj
 0002:000049e8       ??_C@_1O@IMNBEMCI@?$AAs?$AAm?$AAj?$AA?9?$AAS?$AAE?$AA?$AA@ 00000001400189e8     libucrt:lcidtoname_downlevel.obj
 0002:000049f8       ??_C@_1M@DHHMBNDP@?$AAa?$AAr?$AA?9?$AAM?$AAA?$AA?$AA@ 00000001400189f8     libucrt:lcidtoname_downlevel.obj
 0002:00004a08       ??_C@_1M@BNBLJCGH@?$AAe?$AAn?$AA?9?$AAI?$AAE?$AA?$AA@ 0000000140018a08     libucrt:lcidtoname_downlevel.obj
 0002:00004a18       ??_C@_1M@GEPAFMDL@?$AAe?$AAs?$AA?9?$AAP?$AAA?$AA?$AA@ 0000000140018a18     libucrt:lcidtoname_downlevel.obj
 0002:00004a28       ??_C@_1M@OJONDMDL@?$AAf?$AAr?$AA?9?$AAM?$AAC?$AA?$AA@ 0000000140018a28     libucrt:lcidtoname_downlevel.obj
 0002:00004a38       ??_C@_1BG@OBCNFJB@?$AAs?$AAr?$AA?9?$AAB?$AAA?$AA?9?$AAL?$AAa?$AAt?$AAn?$AA?$AA@ 0000000140018a38     libucrt:lcidtoname_downlevel.obj
 0002:00004a50       ??_C@_1O@KEMEEGPO@?$AAs?$AAm?$AAa?$AA?9?$AAN?$AAO?$AA?$AA@ 0000000140018a50     libucrt:lcidtoname_downlevel.obj
 0002:00004a60       ??_C@_1M@ELMGFODK@?$AAa?$AAr?$AA?9?$AAT?$AAN?$AA?$AA@ 0000000140018a60     libucrt:lcidtoname_downlevel.obj
 0002:00004a70       ??_C@_1M@BHDLHFAF@?$AAe?$AAn?$AA?9?$AAZ?$AAA?$AA?$AA@ 0000000140018a70     libucrt:lcidtoname_downlevel.obj
 0002:00004a80       ??_C@_1M@BMGIGLIF@?$AAe?$AAs?$AA?9?$AAD?$AAO?$AA?$AA@ 0000000140018a80     libucrt:lcidtoname_downlevel.obj
 0002:00004a90       ??_C@_1BG@CMBHIPBE@?$AAs?$AAr?$AA?9?$AAB?$AAA?$AA?9?$AAC?$AAy?$AAr?$AAl?$AA?$AA@ 0000000140018a90     libucrt:lcidtoname_downlevel.obj
 0002:00004aa8       ??_C@_1O@HEDBLHNP@?$AAs?$AAm?$AAa?$AA?9?$AAS?$AAE?$AA?$AA@ 0000000140018aa8     libucrt:lcidtoname_downlevel.obj
 0002:00004ab8       ??_C@_1M@DAGCADIM@?$AAa?$AAr?$AA?9?$AAO?$AAM?$AA?$AA@ 0000000140018ab8     libucrt:lcidtoname_downlevel.obj
 0002:00004ac8       ??_C@_1M@FODLMICG@?$AAe?$AAn?$AA?9?$AAJ?$AAM?$AA?$AA@ 0000000140018ac8     libucrt:lcidtoname_downlevel.obj
 0002:00004ad8       ??_C@_1M@DNMLCIHB@?$AAe?$AAs?$AA?9?$AAV?$AAE?$AA?$AA@ 0000000140018ad8     libucrt:lcidtoname_downlevel.obj
 0002:00004ae8       ??_C@_1O@EOKHMKJK@?$AAs?$AAm?$AAs?$AA?9?$AAF?$AAI?$AA?$AA@ 0000000140018ae8     libucrt:lcidtoname_downlevel.obj
 0002:00004af8       ??_C@_1M@CAFJMKOF@?$AAa?$AAr?$AA?9?$AAY?$AAE?$AA?$AA@ 0000000140018af8     libucrt:lcidtoname_downlevel.obj
 0002:00004b08       ??_C@_1M@CBFHIJLI@?$AAe?$AAn?$AA?9?$AAC?$AAB?$AA?$AA@ 0000000140018b08     libucrt:lcidtoname_downlevel.obj
 0002:00004b18       ??_C@_1M@BGNFLDN@?$AAe?$AAs?$AA?9?$AAC?$AAO?$AA?$AA@ 0000000140018b18     libucrt:lcidtoname_downlevel.obj
 0002:00004b28       ??_C@_1O@JMPHMAMC@?$AAs?$AAm?$AAn?$AA?9?$AAF?$AAI?$AA?$AA@ 0000000140018b28     libucrt:lcidtoname_downlevel.obj
 0002:00004b38       ??_C@_1M@JLANABKE@?$AAa?$AAr?$AA?9?$AAS?$AAY?$AA?$AA@ 0000000140018b38     libucrt:lcidtoname_downlevel.obj
 0002:00004b48       ??_C@_1M@HPKGCFGN@?$AAe?$AAn?$AA?9?$AAB?$AAZ?$AA?$AA@ 0000000140018b48     libucrt:lcidtoname_downlevel.obj
 0002:00004b58       ??_C@_1M@OLJCMLGM@?$AAe?$AAs?$AA?9?$AAP?$AAE?$AA?$AA@ 0000000140018b58     libucrt:lcidtoname_downlevel.obj
 0002:00004b68       ??_C@_1M@MKKGFKLE@?$AAa?$AAr?$AA?9?$AAJ?$AAO?$AA?$AA@ 0000000140018b68     libucrt:lcidtoname_downlevel.obj
 0002:00004b78       ??_C@_1M@EKPGLDNI@?$AAe?$AAn?$AA?9?$AAT?$AAT?$AA?$AA@ 0000000140018b78     libucrt:lcidtoname_downlevel.obj
 0002:00004b88       ??_C@_1M@OONGHFHE@?$AAe?$AAs?$AA?9?$AAA?$AAR?$AA?$AA@ 0000000140018b88     libucrt:lcidtoname_downlevel.obj
 0002:00004b98       ??_C@_1M@OOJFGBHE@?$AAa?$AAr?$AA?9?$AAL?$AAB?$AA?$AA@ 0000000140018b98     libucrt:lcidtoname_downlevel.obj
 0002:00004ba8       ??_C@_1M@GCEJHNEG@?$AAe?$AAn?$AA?9?$AAZ?$AAW?$AA?$AA@ 0000000140018ba8     libucrt:lcidtoname_downlevel.obj
 0002:00004bb8       ??_C@_1M@JNOCAHJI@?$AAe?$AAs?$AA?9?$AAE?$AAC?$AA?$AA@ 0000000140018bb8     libucrt:lcidtoname_downlevel.obj
 0002:00004bc8       ??_C@_1M@JEFHPGGB@?$AAa?$AAr?$AA?9?$AAK?$AAW?$AA?$AA@ 0000000140018bc8     libucrt:lcidtoname_downlevel.obj
 0002:00004bd8       ??_C@_1M@MLKIBJOJ@?$AAe?$AAn?$AA?9?$AAP?$AAH?$AA?$AA@ 0000000140018bd8     libucrt:lcidtoname_downlevel.obj
 0002:00004be8       ??_C@_1M@BDNIPEND@?$AAe?$AAs?$AA?9?$AAC?$AAL?$AA?$AA@ 0000000140018be8     libucrt:lcidtoname_downlevel.obj
 0002:00004bf8       ??_C@_1M@MPNMEKBD@?$AAa?$AAr?$AA?9?$AAA?$AAE?$AA?$AA@ 0000000140018bf8     libucrt:lcidtoname_downlevel.obj
 0002:00004c08       ??_C@_1M@KBJALCPI@?$AAe?$AAs?$AA?9?$AAU?$AAY?$AA?$AA@ 0000000140018c08     libucrt:lcidtoname_downlevel.obj
 0002:00004c18       ??_C@_1M@LLCCOAGA@?$AAa?$AAr?$AA?9?$AAB?$AAH?$AA?$AA@ 0000000140018c18     libucrt:lcidtoname_downlevel.obj
 0002:00004c28       ??_C@_1M@PBFNCDEL@?$AAe?$AAs?$AA?9?$AAP?$AAY?$AA?$AA@ 0000000140018c28     libucrt:lcidtoname_downlevel.obj
 0002:00004c38       ??_C@_1M@EDGINPNP@?$AAa?$AAr?$AA?9?$AAQ?$AAA?$AA?$AA@ 0000000140018c38     libucrt:lcidtoname_downlevel.obj
 0002:00004c48       ??_C@_1M@MKDBIIJI@?$AAe?$AAs?$AA?9?$AAB?$AAO?$AA?$AA@ 0000000140018c48     libucrt:lcidtoname_downlevel.obj
 0002:00004c58       ??_C@_1M@CPKKEBLD@?$AAe?$AAs?$AA?9?$AAS?$AAV?$AA?$AA@ 0000000140018c58     libucrt:lcidtoname_downlevel.obj
 0002:00004c68       ??_C@_1M@NDBGMMJL@?$AAe?$AAs?$AA?9?$AAH?$AAN?$AA?$AA@ 0000000140018c68     libucrt:lcidtoname_downlevel.obj
 0002:00004c78       ??_C@_1M@JIJIBHDP@?$AAe?$AAs?$AA?9?$AAN?$AAI?$AA?$AA@ 0000000140018c78     libucrt:lcidtoname_downlevel.obj
 0002:00004c88       ??_C@_1M@CGFMKEEK@?$AAe?$AAs?$AA?9?$AAP?$AAR?$AA?$AA@ 0000000140018c88     libucrt:lcidtoname_downlevel.obj
 0002:00004c98       ??_C@_1O@ICJHKIIK@?$AAz?$AAh?$AA?9?$AAC?$AAH?$AAT?$AA?$AA@ 0000000140018c98     libucrt:lcidtoname_downlevel.obj
 0002:00004ca8       ??_C@_15CLNEJCE@?$AAs?$AAr?$AA?$AA@ 0000000140018ca8     libucrt:lcidtoname_downlevel.obj
 0002:00005af0       ??_C@_1M@KAHEKEIG@?$AAa?$AAf?$AA?9?$AAz?$AAa?$AA?$AA@ 0000000140019af0     libucrt:lcidtoname_downlevel.obj
 0002:00005b00       ??_C@_1M@GIECOABL@?$AAa?$AAr?$AA?9?$AAa?$AAe?$AA?$AA@ 0000000140019b00     libucrt:lcidtoname_downlevel.obj
 0002:00005b10       ??_C@_1M@BMLMEKGI@?$AAa?$AAr?$AA?9?$AAb?$AAh?$AA?$AA@ 0000000140019b10     libucrt:lcidtoname_downlevel.obj
 0002:00005b20       ??_C@_1M@DAPFDGGB@?$AAa?$AAr?$AA?9?$AAd?$AAz?$AA?$AA@ 0000000140019b20     libucrt:lcidtoname_downlevel.obj
 0002:00005b30       ??_C@_1M@FJNKGKIG@?$AAa?$AAr?$AA?9?$AAe?$AAg?$AA?$AA@ 0000000140019b30     libucrt:lcidtoname_downlevel.obj
 0002:00005b40       ??_C@_1M@FLGKKCLO@?$AAa?$AAr?$AA?9?$AAi?$AAq?$AA?$AA@ 0000000140019b40     libucrt:lcidtoname_downlevel.obj
 0002:00005b50       ??_C@_1M@GNDIPALM@?$AAa?$AAr?$AA?9?$AAj?$AAo?$AA?$AA@ 0000000140019b50     libucrt:lcidtoname_downlevel.obj
 0002:00005b60       ??_C@_1M@DDMJFMGJ@?$AAa?$AAr?$AA?9?$AAk?$AAw?$AA?$AA@ 0000000140019b60     libucrt:lcidtoname_downlevel.obj
 0002:00005b70       ??_C@_1M@EJALMLHM@?$AAa?$AAr?$AA?9?$AAl?$AAb?$AA?$AA@ 0000000140019b70     libucrt:lcidtoname_downlevel.obj
 0002:00005b80       ??_C@_1M@MOBDBLOC@?$AAa?$AAr?$AA?9?$AAl?$AAy?$AA?$AA@ 0000000140019b80     libucrt:lcidtoname_downlevel.obj
 0002:00005b90       ??_C@_1M@JAOCLHDH@?$AAa?$AAr?$AA?9?$AAm?$AAa?$AA?$AA@ 0000000140019b90     libucrt:lcidtoname_downlevel.obj
 0002:00005ba0       ??_C@_1M@JHPMKJIE@?$AAa?$AAr?$AA?9?$AAo?$AAm?$AA?$AA@ 0000000140019ba0     libucrt:lcidtoname_downlevel.obj
 0002:00005bb0       ??_C@_1M@OEPGHFNH@?$AAa?$AAr?$AA?9?$AAq?$AAa?$AA?$AA@ 0000000140019bb0     libucrt:lcidtoname_downlevel.obj
 0002:00005bc0       ??_C@_1M@KJDONENM@?$AAa?$AAr?$AA?9?$AAs?$AAa?$AA?$AA@ 0000000140019bc0     libucrt:lcidtoname_downlevel.obj
 0002:00005bd0       ??_C@_1M@DMJDKLKM@?$AAa?$AAr?$AA?9?$AAs?$AAy?$AA?$AA@ 0000000140019bd0     libucrt:lcidtoname_downlevel.obj
 0002:00005be0       ??_C@_1M@OMFIPEDC@?$AAa?$AAr?$AA?9?$AAt?$AAn?$AA?$AA@ 0000000140019be0     libucrt:lcidtoname_downlevel.obj
 0002:00005bf0       ??_C@_1M@IHMHGAON@?$AAa?$AAr?$AA?9?$AAy?$AAe?$AA?$AA@ 0000000140019bf0     libucrt:lcidtoname_downlevel.obj
 0002:00005c00       ??_C@_1BG@KDCPGJGB@?$AAa?$AAz?$AA?9?$AAa?$AAz?$AA?9?$AAc?$AAy?$AAr?$AAl?$AA?$AA@ 0000000140019c00     libucrt:lcidtoname_downlevel.obj
 0002:00005c18       ??_C@_1BG@IBCKDDOE@?$AAa?$AAz?$AA?9?$AAa?$AAz?$AA?9?$AAl?$AAa?$AAt?$AAn?$AA?$AA@ 0000000140019c18     libucrt:lcidtoname_downlevel.obj
 0002:00005c30       ??_C@_1M@EGPFDCPD@?$AAb?$AAe?$AA?9?$AAb?$AAy?$AA?$AA@ 0000000140019c30     libucrt:lcidtoname_downlevel.obj
 0002:00005c40       ??_C@_1M@PCMGMCGC@?$AAb?$AAg?$AA?9?$AAb?$AAg?$AA?$AA@ 0000000140019c40     libucrt:lcidtoname_downlevel.obj
 0002:00005c50       ??_C@_1M@BJBMFGOB@?$AAb?$AAn?$AA?9?$AAi?$AAn?$AA?$AA@ 0000000140019c50     libucrt:lcidtoname_downlevel.obj
 0002:00005c60       ??_C@_1BG@EAKMMACD@?$AAb?$AAs?$AA?9?$AAb?$AAa?$AA?9?$AAl?$AAa?$AAt?$AAn?$AA?$AA@ 0000000140019c60     libucrt:lcidtoname_downlevel.obj
 0002:00005c78       ??_C@_1M@KGADAODK@?$AAc?$AAa?$AA?9?$AAe?$AAs?$AA?$AA@ 0000000140019c78     libucrt:lcidtoname_downlevel.obj
 0002:00005c88       ??_C@_1M@COAJPDHI@?$AAc?$AAs?$AA?9?$AAc?$AAz?$AA?$AA@ 0000000140019c88     libucrt:lcidtoname_downlevel.obj
 0002:00005c98       ??_C@_1M@DHBHFONH@?$AAc?$AAy?$AA?9?$AAg?$AAb?$AA?$AA@ 0000000140019c98     libucrt:lcidtoname_downlevel.obj
 0002:00005ca8       ??_C@_1M@IMGKELGA@?$AAd?$AAa?$AA?9?$AAd?$AAk?$AA?$AA@ 0000000140019ca8     libucrt:lcidtoname_downlevel.obj
 0002:00005cb8       ??_C@_1M@NNDGDNGA@?$AAd?$AAe?$AA?9?$AAa?$AAt?$AA?$AA@ 0000000140019cb8     libucrt:lcidtoname_downlevel.obj
 0002:00005cc8       ??_C@_1M@IKDBHEEM@?$AAd?$AAe?$AA?9?$AAc?$AAh?$AA?$AA@ 0000000140019cc8     libucrt:lcidtoname_downlevel.obj
 0002:00005cd8       ??_C@_1M@GFFOJMCJ@?$AAd?$AAe?$AA?9?$AAd?$AAe?$AA?$AA@ 0000000140019cd8     libucrt:lcidtoname_downlevel.obj
 0002:00005ce8       ??_C@_1M@MDNLKBPM@?$AAd?$AAe?$AA?9?$AAl?$AAi?$AA?$AA@ 0000000140019ce8     libucrt:lcidtoname_downlevel.obj
 0002:00005cf8       ??_C@_1M@NJBEEJNL@?$AAd?$AAe?$AA?9?$AAl?$AAu?$AA?$AA@ 0000000140019cf8     libucrt:lcidtoname_downlevel.obj
 0002:00005d08       ??_C@_1O@GNNELBAP@?$AAd?$AAi?$AAv?$AA?9?$AAm?$AAv?$AA?$AA@ 0000000140019d08     libucrt:lcidtoname_downlevel.obj
 0002:00005d18       ??_C@_1M@EJLEOGAE@?$AAe?$AAl?$AA?9?$AAg?$AAr?$AA?$AA@ 0000000140019d18     libucrt:lcidtoname_downlevel.obj
 0002:00005d28       ??_C@_1M@GMPONJN@?$AAe?$AAn?$AA?9?$AAa?$AAu?$AA?$AA@ 0000000140019d28     libucrt:lcidtoname_downlevel.obj
 0002:00005d38       ??_C@_1M@NIDIIPGF@?$AAe?$AAn?$AA?9?$AAb?$AAz?$AA?$AA@ 0000000140019d38     libucrt:lcidtoname_downlevel.obj
 0002:00005d48       ??_C@_1M@JEHMIMFO@?$AAe?$AAn?$AA?9?$AAc?$AAa?$AA?$AA@ 0000000140019d48     libucrt:lcidtoname_downlevel.obj
 0002:00005d58       ??_C@_1M@IGMJCDLA@?$AAe?$AAn?$AA?9?$AAc?$AAb?$AA?$AA@ 0000000140019d58     libucrt:lcidtoname_downlevel.obj
 0002:00005d68       ??_C@_1M@BNFIGBKG@?$AAe?$AAn?$AA?9?$AAg?$AAb?$AA?$AA@ 0000000140019d68     libucrt:lcidtoname_downlevel.obj
 0002:00005d78       ??_C@_1M@LKIFDIGP@?$AAe?$AAn?$AA?9?$AAi?$AAe?$AA?$AA@ 0000000140019d78     libucrt:lcidtoname_downlevel.obj
 0002:00005d88       ??_C@_1M@PJKFGCCO@?$AAe?$AAn?$AA?9?$AAj?$AAm?$AA?$AA@ 0000000140019d88     libucrt:lcidtoname_downlevel.obj
 0002:00005d98       ??_C@_1M@KPPKEPBO@?$AAe?$AAn?$AA?9?$AAn?$AAz?$AA?$AA@ 0000000140019d98     libucrt:lcidtoname_downlevel.obj
 0002:00005da8       ??_C@_1M@GMDGLDOB@?$AAe?$AAn?$AA?9?$AAp?$AAh?$AA?$AA@ 0000000140019da8     libucrt:lcidtoname_downlevel.obj
 0002:00005db8       ??_C@_1M@ONGIBJNA@?$AAe?$AAn?$AA?9?$AAt?$AAt?$AA?$AA@ 0000000140019db8     libucrt:lcidtoname_downlevel.obj
 0002:00005dc8       ??_C@_1M@LLODPCMM@?$AAe?$AAn?$AA?9?$AAu?$AAs?$AA?$AA@ 0000000140019dc8     libucrt:lcidtoname_downlevel.obj
 0002:00005dd8       ??_C@_1M@LAKFNPAN@?$AAe?$AAn?$AA?9?$AAz?$AAa?$AA?$AA@ 0000000140019dd8     libucrt:lcidtoname_downlevel.obj
 0002:00005de8       ??_C@_1M@MFNHNHEO@?$AAe?$AAn?$AA?9?$AAz?$AAw?$AA?$AA@ 0000000140019de8     libucrt:lcidtoname_downlevel.obj
 0002:00005df8       ??_C@_1M@EJEINPHM@?$AAe?$AAs?$AA?9?$AAa?$AAr?$AA?$AA@ 0000000140019df8     libucrt:lcidtoname_downlevel.obj
 0002:00005e08       ??_C@_1M@GNKPCCJA@?$AAe?$AAs?$AA?9?$AAb?$AAo?$AA?$AA@ 0000000140019e08     libucrt:lcidtoname_downlevel.obj
 0002:00005e18       ??_C@_1M@LEEGFONL@?$AAe?$AAs?$AA?9?$AAc?$AAl?$AA?$AA@ 0000000140019e18     libucrt:lcidtoname_downlevel.obj
 0002:00005e28       ??_C@_1M@KGPDPBDF@?$AAe?$AAs?$AA?9?$AAc?$AAo?$AA?$AA@ 0000000140019e28     libucrt:lcidtoname_downlevel.obj
 0002:00005e38       ??_C@_1M@EIAHOHH@?$AAe?$AAs?$AA?9?$AAc?$AAr?$AA?$AA@ 0000000140019e38     libucrt:lcidtoname_downlevel.obj
 0002:00005e48       ??_C@_1M@LLPGMBIN@?$AAe?$AAs?$AA?9?$AAd?$AAo?$AA?$AA@ 0000000140019e48     libucrt:lcidtoname_downlevel.obj
 0002:00005e58       ??_C@_1M@DKHMKNJA@?$AAe?$AAs?$AA?9?$AAe?$AAc?$AA?$AA@ 0000000140019e58     libucrt:lcidtoname_downlevel.obj
 0002:00005e68       ??_C@_1M@GKGFPKAP@?$AAe?$AAs?$AA?9?$AAe?$AAs?$AA?$AA@ 0000000140019e68     libucrt:lcidtoname_downlevel.obj
 0002:00005e78       ??_C@_1M@LKHKGDLN@?$AAe?$AAs?$AA?9?$AAg?$AAt?$AA?$AA@ 0000000140019e78     libucrt:lcidtoname_downlevel.obj
 0002:00005e88       ??_C@_1M@HEIIGGJD@?$AAe?$AAs?$AA?9?$AAh?$AAn?$AA?$AA@ 0000000140019e88     libucrt:lcidtoname_downlevel.obj
 0002:00005e98       ??_C@_1M@FBDHPPGD@?$AAe?$AAs?$AA?9?$AAm?$AAx?$AA?$AA@ 0000000140019e98     libucrt:lcidtoname_downlevel.obj
 0002:00005ea8       ??_C@_1M@DPAGLNDH@?$AAe?$AAs?$AA?9?$AAn?$AAi?$AA?$AA@ 0000000140019ea8     libucrt:lcidtoname_downlevel.obj
 0002:00005eb8       ??_C@_1M@MDGOPGDD@?$AAe?$AAs?$AA?9?$AAp?$AAa?$AA?$AA@ 0000000140019eb8     libucrt:lcidtoname_downlevel.obj
 0002:00005ec8       ??_C@_1M@EMAMGBGE@?$AAe?$AAs?$AA?9?$AAp?$AAe?$AA?$AA@ 0000000140019ec8     libucrt:lcidtoname_downlevel.obj
 0002:00005ed8       ??_C@_1M@IBMCAOEC@?$AAe?$AAs?$AA?9?$AAp?$AAr?$AA?$AA@ 0000000140019ed8     libucrt:lcidtoname_downlevel.obj
 0002:00005ee8       ??_C@_1M@FGMDIJED@?$AAe?$AAs?$AA?9?$AAp?$AAy?$AA?$AA@ 0000000140019ee8     libucrt:lcidtoname_downlevel.obj
 0002:00005ef8       ??_C@_1M@IIDEOLLL@?$AAe?$AAs?$AA?9?$AAs?$AAv?$AA?$AA@ 0000000140019ef8     libucrt:lcidtoname_downlevel.obj
 0002:00005f08       ??_C@_1M@GAOBIPA@?$AAe?$AAs?$AA?9?$AAu?$AAy?$AA?$AA@ 0000000140019f08     libucrt:lcidtoname_downlevel.obj
 0002:00005f18       ??_C@_1M@JKFFICHJ@?$AAe?$AAs?$AA?9?$AAv?$AAe?$AA?$AA@ 0000000140019f18     libucrt:lcidtoname_downlevel.obj
 0002:00005f28       ??_C@_1M@PNMLOJDF@?$AAe?$AAt?$AA?9?$AAe?$AAe?$AA?$AA@ 0000000140019f28     libucrt:lcidtoname_downlevel.obj
 0002:00005f38       ??_C@_1M@GHHLIKEI@?$AAe?$AAu?$AA?9?$AAe?$AAs?$AA?$AA@ 0000000140019f38     libucrt:lcidtoname_downlevel.obj
 0002:00005f48       ??_C@_1M@PBNONODE@?$AAf?$AAa?$AA?9?$AAi?$AAr?$AA?$AA@ 0000000140019f48     libucrt:lcidtoname_downlevel.obj
 0002:00005f58       ??_C@_1M@JEEHPMIL@?$AAf?$AAi?$AA?9?$AAf?$AAi?$AA?$AA@ 0000000140019f58     libucrt:lcidtoname_downlevel.obj
 0002:00005f68       ??_C@_1M@LMDCNDBA@?$AAf?$AAo?$AA?9?$AAf?$AAo?$AA?$AA@ 0000000140019f68     libucrt:lcidtoname_downlevel.obj
 0002:00005f78       ??_C@_1M@JKEOHLDK@?$AAf?$AAr?$AA?9?$AAb?$AAe?$AA?$AA@ 0000000140019f78     libucrt:lcidtoname_downlevel.obj
 0002:00005f88       ??_C@_1M@NOHADPMI@?$AAf?$AAr?$AA?9?$AAc?$AAa?$AA?$AA@ 0000000140019f88     libucrt:lcidtoname_downlevel.obj
 0002:00005f98       ??_C@_1M@KDHIHAEC@?$AAf?$AAr?$AA?9?$AAc?$AAh?$AA?$AA@ 0000000140019f98     libucrt:lcidtoname_downlevel.obj
 0002:00005fa8       ??_C@_1M@MMBBFGAK@?$AAf?$AAr?$AA?9?$AAf?$AAr?$AA?$AA@ 0000000140019fa8     libucrt:lcidtoname_downlevel.obj
 0002:00005fb8       ??_C@_1M@PAFNENNF@?$AAf?$AAr?$AA?9?$AAl?$AAu?$AA?$AA@ 0000000140019fb8     libucrt:lcidtoname_downlevel.obj
 0002:00005fc8       ??_C@_1M@EOHDJGDD@?$AAf?$AAr?$AA?9?$AAm?$AAc?$AA?$AA@ 0000000140019fc8     libucrt:lcidtoname_downlevel.obj
 0002:00005fd8       ??_C@_1M@FAPLLOPF@?$AAg?$AAl?$AA?9?$AAe?$AAs?$AA?$AA@ 0000000140019fd8     libucrt:lcidtoname_downlevel.obj
 0002:00005fe8       ??_C@_1M@FOPBFLOO@?$AAg?$AAu?$AA?9?$AAi?$AAn?$AA?$AA@ 0000000140019fe8     libucrt:lcidtoname_downlevel.obj
 0002:00005ff8       ??_C@_1M@KBMCINPM@?$AAh?$AAe?$AA?9?$AAi?$AAl?$AA?$AA@ 0000000140019ff8     libucrt:lcidtoname_downlevel.obj
 0002:00006008       ??_C@_1M@BBPHKFPJ@?$AAh?$AAi?$AA?9?$AAi?$AAn?$AA?$AA@ 000000014001a008     libucrt:lcidtoname_downlevel.obj
 0002:00006018       ??_C@_1M@PMBNDPHD@?$AAh?$AAr?$AA?9?$AAb?$AAa?$AA?$AA@ 000000014001a018     libucrt:lcidtoname_downlevel.obj
 0002:00006028       ??_C@_1M@BPCKOEGE@?$AAh?$AAr?$AA?9?$AAh?$AAr?$AA?$AA@ 000000014001a028     libucrt:lcidtoname_downlevel.obj
 0002:00006038       ??_C@_1M@GACBMHKE@?$AAh?$AAu?$AA?9?$AAh?$AAu?$AA?$AA@ 000000014001a038     libucrt:lcidtoname_downlevel.obj
 0002:00006048       ??_C@_1M@MILPAJJC@?$AAh?$AAy?$AA?9?$AAa?$AAm?$AA?$AA@ 000000014001a048     libucrt:lcidtoname_downlevel.obj
 0002:00006058       ??_C@_1M@BABBICEC@?$AAi?$AAd?$AA?9?$AAi?$AAd?$AA?$AA@ 000000014001a058     libucrt:lcidtoname_downlevel.obj
 0002:00006068       ??_C@_1M@BIKNHHPF@?$AAi?$AAs?$AA?9?$AAi?$AAs?$AA?$AA@ 000000014001a068     libucrt:lcidtoname_downlevel.obj
 0002:00006078       ??_C@_1M@NMPCJPHE@?$AAi?$AAt?$AA?9?$AAc?$AAh?$AA?$AA@ 000000014001a078     libucrt:lcidtoname_downlevel.obj
 0002:00006088       ??_C@_1M@GHKGFEDF@?$AAi?$AAt?$AA?9?$AAi?$AAt?$AA?$AA@ 000000014001a088     libucrt:lcidtoname_downlevel.obj
 0002:00006098       ??_C@_1M@NIEJCJJA@?$AAj?$AAa?$AA?9?$AAj?$AAp?$AA?$AA@ 000000014001a098     libucrt:lcidtoname_downlevel.obj
 0002:000060a8       ??_C@_1M@JILFNBIM@?$AAk?$AAa?$AA?9?$AAg?$AAe?$AA?$AA@ 000000014001a0a8     libucrt:lcidtoname_downlevel.obj
 0002:000060b8       ??_C@_1M@PACPMGPH@?$AAk?$AAk?$AA?9?$AAk?$AAz?$AA?$AA@ 000000014001a0b8     libucrt:lcidtoname_downlevel.obj
 0002:000060c8       ??_C@_1M@IELFGMHA@?$AAk?$AAn?$AA?9?$AAi?$AAn?$AA?$AA@ 000000014001a0c8     libucrt:lcidtoname_downlevel.obj
 0002:000060d8       ??_C@_1O@IBBJHCH@?$AAk?$AAo?$AAk?$AA?9?$AAi?$AAn?$AA?$AA@ 000000014001a0d8     libucrt:lcidtoname_downlevel.obj
 0002:000060e8       ??_C@_1M@DMHAEOGC@?$AAk?$AAo?$AA?9?$AAk?$AAr?$AA?$AA@ 000000014001a0e8     libucrt:lcidtoname_downlevel.obj
 0002:000060f8       ??_C@_1M@HBAHBIGA@?$AAk?$AAy?$AA?9?$AAk?$AAg?$AA?$AA@ 000000014001a0f8     libucrt:lcidtoname_downlevel.obj
 0002:00006108       ??_C@_1M@KPMILCJG@?$AAl?$AAt?$AA?9?$AAl?$AAt?$AA?$AA@ 000000014001a108     libucrt:lcidtoname_downlevel.obj
 0002:00006118       ??_C@_1M@BDEKKCA@?$AAl?$AAv?$AA?9?$AAl?$AAv?$AA?$AA@ 000000014001a118     libucrt:lcidtoname_downlevel.obj
 0002:00006128       ??_C@_1M@ELCKCCJJ@?$AAm?$AAi?$AA?9?$AAn?$AAz?$AA?$AA@ 000000014001a128     libucrt:lcidtoname_downlevel.obj
 0002:00006138       ??_C@_1M@CBOOLAPA@?$AAm?$AAk?$AA?9?$AAm?$AAk?$AA?$AA@ 000000014001a138     libucrt:lcidtoname_downlevel.obj
 0002:00006148       ??_C@_1M@GPHNBJKN@?$AAm?$AAl?$AA?9?$AAi?$AAn?$AA?$AA@ 000000014001a148     libucrt:lcidtoname_downlevel.obj
 0002:00006158       ??_C@_1M@PABJILIG@?$AAm?$AAn?$AA?9?$AAm?$AAn?$AA?$AA@ 000000014001a158     libucrt:lcidtoname_downlevel.obj
 0002:00006168       ??_C@_1M@FGBKKIPG@?$AAm?$AAr?$AA?9?$AAi?$AAn?$AA?$AA@ 000000014001a168     libucrt:lcidtoname_downlevel.obj
 0002:00006178       ??_C@_1M@NDBPDDAL@?$AAm?$AAs?$AA?9?$AAb?$AAn?$AA?$AA@ 000000014001a178     libucrt:lcidtoname_downlevel.obj
 0002:00006188       ??_C@_1M@OPIHOOPI@?$AAm?$AAs?$AA?9?$AAm?$AAy?$AA?$AA@ 000000014001a188     libucrt:lcidtoname_downlevel.obj
 0002:00006198       ??_C@_1M@PPDBCNFM@?$AAm?$AAt?$AA?9?$AAm?$AAt?$AA?$AA@ 000000014001a198     libucrt:lcidtoname_downlevel.obj
 0002:000061a8       ??_C@_1M@KDJDKMDD@?$AAn?$AAb?$AA?9?$AAn?$AAo?$AA?$AA@ 000000014001a1a8     libucrt:lcidtoname_downlevel.obj
 0002:000061b8       ??_C@_1M@KFCFLMJP@?$AAn?$AAl?$AA?9?$AAb?$AAe?$AA?$AA@ 000000014001a1b8     libucrt:lcidtoname_downlevel.obj
 0002:000061c8       ??_C@_1M@KPOPDDGO@?$AAn?$AAl?$AA?9?$AAn?$AAl?$AA?$AA@ 000000014001a1c8     libucrt:lcidtoname_downlevel.obj
 0002:000061d8       ??_C@_1M@LJKPEMLN@?$AAn?$AAn?$AA?9?$AAn?$AAo?$AA?$AA@ 000000014001a1d8     libucrt:lcidtoname_downlevel.obj
 0002:000061e8       ??_C@_1M@BDGHHBFL@?$AAn?$AAs?$AA?9?$AAz?$AAa?$AA?$AA@ 000000014001a1e8     libucrt:lcidtoname_downlevel.obj
 0002:000061f8       ??_C@_1M@IDEHOAP@?$AAp?$AAa?$AA?9?$AAi?$AAn?$AA?$AA@ 000000014001a1f8     libucrt:lcidtoname_downlevel.obj
 0002:00006208       ??_C@_1M@HDBKGOGH@?$AAp?$AAl?$AA?9?$AAp?$AAl?$AA?$AA@ 000000014001a208     libucrt:lcidtoname_downlevel.obj
 0002:00006218       ??_C@_1M@LJLLCMEH@?$AAp?$AAt?$AA?9?$AAb?$AAr?$AA?$AA@ 000000014001a218     libucrt:lcidtoname_downlevel.obj
 0002:00006228       ??_C@_1M@NCMONAAL@?$AAp?$AAt?$AA?9?$AAp?$AAt?$AA?$AA@ 000000014001a228     libucrt:lcidtoname_downlevel.obj
 0002:00006238       ??_C@_1O@EAKMAJDN@?$AAq?$AAu?$AAz?$AA?9?$AAb?$AAo?$AA?$AA@ 000000014001a238     libucrt:lcidtoname_downlevel.obj
 0002:00006248       ??_C@_1O@BHHPIGDN@?$AAq?$AAu?$AAz?$AA?9?$AAe?$AAc?$AA?$AA@ 000000014001a248     libucrt:lcidtoname_downlevel.obj
 0002:00006258       ??_C@_1O@GBAPEKMJ@?$AAq?$AAu?$AAz?$AA?9?$AAp?$AAe?$AA?$AA@ 000000014001a258     libucrt:lcidtoname_downlevel.obj
 0002:00006268       ??_C@_1M@CLGLEFBO@?$AAr?$AAo?$AA?9?$AAr?$AAo?$AA?$AA@ 000000014001a268     libucrt:lcidtoname_downlevel.obj
 0002:00006278       ??_C@_1M@CEEDODME@?$AAr?$AAu?$AA?9?$AAr?$AAu?$AA?$AA@ 000000014001a278     libucrt:lcidtoname_downlevel.obj
 0002:00006288       ??_C@_1M@HPKKKMPP@?$AAs?$AAa?$AA?9?$AAi?$AAn?$AA?$AA@ 000000014001a288     libucrt:lcidtoname_downlevel.obj
 0002:00006298       ??_C@_1M@BKMAIGOJ@?$AAs?$AAe?$AA?9?$AAf?$AAi?$AA?$AA@ 000000014001a298     libucrt:lcidtoname_downlevel.obj
 0002:000062a8       ??_C@_1M@NDPIFLFI@?$AAs?$AAe?$AA?9?$AAn?$AAo?$AA?$AA@ 000000014001a2a8     libucrt:lcidtoname_downlevel.obj
 0002:000062b8       ??_C@_1M@DANKKHJ@?$AAs?$AAe?$AA?9?$AAs?$AAe?$AA?$AA@ 000000014001a2b8     libucrt:lcidtoname_downlevel.obj
 0002:000062c8       ??_C@_1M@PNBLONPJ@?$AAs?$AAk?$AA?9?$AAs?$AAk?$AA?$AA@ 000000014001a2c8     libucrt:lcidtoname_downlevel.obj
 0002:000062d8       ??_C@_1M@LFMODOAL@?$AAs?$AAl?$AA?9?$AAs?$AAi?$AA?$AA@ 000000014001a2d8     libucrt:lcidtoname_downlevel.obj
 0002:000062e8       ??_C@_1O@DFKOMPG@?$AAs?$AAm?$AAa?$AA?9?$AAn?$AAo?$AA?$AA@ 000000014001a2e8     libucrt:lcidtoname_downlevel.obj
 0002:000062f8       ??_C@_1O@NDKPBNNH@?$AAs?$AAm?$AAa?$AA?9?$AAs?$AAe?$AA?$AA@ 000000014001a2f8     libucrt:lcidtoname_downlevel.obj
 0002:00006308       ??_C@_1O@PLLKBHAB@?$AAs?$AAm?$AAj?$AA?9?$AAn?$AAo?$AA?$AA@ 000000014001a308     libucrt:lcidtoname_downlevel.obj
 0002:00006318       ??_C@_1O@CLEPOGCA@?$AAs?$AAm?$AAj?$AA?9?$AAs?$AAe?$AA?$AA@ 000000014001a318     libucrt:lcidtoname_downlevel.obj
 0002:00006328       ??_C@_1O@DLGJGKMK@?$AAs?$AAm?$AAn?$AA?9?$AAf?$AAi?$AA?$AA@ 000000014001a328     libucrt:lcidtoname_downlevel.obj
 0002:00006338       ??_C@_1O@OJDJGAJC@?$AAs?$AAm?$AAs?$AA?9?$AAf?$AAi?$AA?$AA@ 000000014001a338     libucrt:lcidtoname_downlevel.obj
 0002:00006348       ??_C@_1M@BOFOGHPB@?$AAs?$AAq?$AA?9?$AAa?$AAl?$AA?$AA@ 000000014001a348     libucrt:lcidtoname_downlevel.obj
 0002:00006358       ??_C@_1BG@LJBBIPGB@?$AAs?$AAr?$AA?9?$AAb?$AAa?$AA?9?$AAc?$AAy?$AAr?$AAl?$AA?$AA@ 000000014001a358     libucrt:lcidtoname_downlevel.obj
 0002:00006370       ??_C@_1BG@JLBENFOE@?$AAs?$AAr?$AA?9?$AAb?$AAa?$AA?9?$AAl?$AAa?$AAt?$AAn?$AA?$AA@ 000000014001a370     libucrt:lcidtoname_downlevel.obj
 0002:00006388       ??_C@_1BG@KODPNHE@?$AAs?$AAr?$AA?9?$AAs?$AAp?$AA?9?$AAc?$AAy?$AAr?$AAl?$AA?$AA@ 000000014001a388     libucrt:lcidtoname_downlevel.obj
 0002:000063a0       ??_C@_1BG@CIOGKHPB@?$AAs?$AAr?$AA?9?$AAs?$AAp?$AA?9?$AAl?$AAa?$AAt?$AAn?$AA?$AA@ 000000014001a3a0     libucrt:lcidtoname_downlevel.obj
 0002:000063b8       ??_C@_1M@NGFJLMAC@?$AAs?$AAv?$AA?9?$AAf?$AAi?$AA?$AA@ 000000014001a3b8     libucrt:lcidtoname_downlevel.obj
 0002:000063c8       ??_C@_1M@MPJEJAJC@?$AAs?$AAv?$AA?9?$AAs?$AAe?$AA?$AA@ 000000014001a3c8     libucrt:lcidtoname_downlevel.obj
 0002:000063d8       ??_C@_1M@MPNDHLFK@?$AAs?$AAw?$AA?9?$AAk?$AAe?$AA?$AA@ 000000014001a3d8     libucrt:lcidtoname_downlevel.obj
 0002:000063e8       ??_C@_1O@KOHBJJI@?$AAs?$AAy?$AAr?$AA?9?$AAs?$AAy?$AA?$AA@ 000000014001a3e8     libucrt:lcidtoname_downlevel.obj
 0002:000063f8       ??_C@_1M@LDCEFHA@?$AAt?$AAa?$AA?9?$AAi?$AAn?$AA?$AA@ 000000014001a3f8     libucrt:lcidtoname_downlevel.obj
 0002:00006408       ??_C@_1M@CNJOFAK@?$AAt?$AAe?$AA?9?$AAi?$AAn?$AA?$AA@ 000000014001a408     libucrt:lcidtoname_downlevel.obj
 0002:00006418       ??_C@_1M@GNAECACD@?$AAt?$AAh?$AA?9?$AAt?$AAh?$AA?$AA@ 000000014001a418     libucrt:lcidtoname_downlevel.obj
 0002:00006428       ??_C@_1M@CHBIHOJO@?$AAt?$AAn?$AA?9?$AAz?$AAa?$AA?$AA@ 000000014001a428     libucrt:lcidtoname_downlevel.obj
 0002:00006438       ??_C@_1M@GCCMIGPJ@?$AAt?$AAr?$AA?9?$AAt?$AAr?$AA?$AA@ 000000014001a438     libucrt:lcidtoname_downlevel.obj
 0002:00006448       ??_C@_1M@CELMCNBK@?$AAt?$AAt?$AA?9?$AAr?$AAu?$AA?$AA@ 000000014001a448     libucrt:lcidtoname_downlevel.obj
 0002:00006458       ??_C@_1M@KLMCELGA@?$AAu?$AAk?$AA?9?$AAu?$AAa?$AA?$AA@ 000000014001a458     libucrt:lcidtoname_downlevel.obj
 0002:00006468       ??_C@_1M@EPAJJAJF@?$AAu?$AAr?$AA?9?$AAp?$AAk?$AA?$AA@ 000000014001a468     libucrt:lcidtoname_downlevel.obj
 0002:00006478       ??_C@_1BG@GEGPMCDJ@?$AAu?$AAz?$AA?9?$AAu?$AAz?$AA?9?$AAc?$AAy?$AAr?$AAl?$AA?$AA@ 000000014001a478     libucrt:lcidtoname_downlevel.obj
 0002:00006490       ??_C@_1BG@EGGKJILM@?$AAu?$AAz?$AA?9?$AAu?$AAz?$AA?9?$AAl?$AAa?$AAt?$AAn?$AA?$AA@ 000000014001a490     libucrt:lcidtoname_downlevel.obj
 0002:000064a8       ??_C@_1M@GFOCLFF@?$AAv?$AAi?$AA?9?$AAv?$AAn?$AA?$AA@ 000000014001a4a8     libucrt:lcidtoname_downlevel.obj
 0002:000064b8       ??_C@_1M@CPAMEDFI@?$AAx?$AAh?$AA?9?$AAz?$AAa?$AA?$AA@ 000000014001a4b8     libucrt:lcidtoname_downlevel.obj
 0002:000064c8       ??_C@_1O@EBKIFIGN@?$AAz?$AAh?$AA?9?$AAc?$AAh?$AAs?$AA?$AA@ 000000014001a4c8     libucrt:lcidtoname_downlevel.obj
 0002:000064d8       ??_C@_1O@NMHPGANE@?$AAz?$AAh?$AA?9?$AAc?$AAh?$AAt?$AA?$AA@ 000000014001a4d8     libucrt:lcidtoname_downlevel.obj
 0002:000064e8       ??_C@_1M@LPINJOMC@?$AAz?$AAh?$AA?9?$AAc?$AAn?$AA?$AA@ 000000014001a4e8     libucrt:lcidtoname_downlevel.obj
 0002:000064f8       ??_C@_1M@OCJEJODD@?$AAz?$AAh?$AA?9?$AAh?$AAk?$AA?$AA@ 000000014001a4f8     libucrt:lcidtoname_downlevel.obj
 0002:00006508       ??_C@_1M@DNDLJINH@?$AAz?$AAh?$AA?9?$AAm?$AAo?$AA?$AA@ 000000014001a508     libucrt:lcidtoname_downlevel.obj
 0002:00006518       ??_C@_1M@MBFDNDND@?$AAz?$AAh?$AA?9?$AAs?$AAg?$AA?$AA@ 000000014001a518     libucrt:lcidtoname_downlevel.obj
 0002:00006528       ??_C@_1M@IMEPLEPE@?$AAz?$AAh?$AA?9?$AAt?$AAw?$AA?$AA@ 000000014001a528     libucrt:lcidtoname_downlevel.obj
 0002:00006538       ??_C@_1M@BBGHNHJP@?$AAz?$AAu?$AA?9?$AAz?$AAa?$AA?$AA@ 000000014001a538     libucrt:lcidtoname_downlevel.obj
 0002:00006548       __real@3ff0000000000000    000000014001a548     libucrt:ceil.obj
 0002:000067a0       __log10_256_lead           000000014001a7a0     libucrt:log10_256_lead_tail_table.obj
 0002:00006fb0       __log10_256_tail           000000014001afb0     libucrt:log10_256_lead_tail_table.obj
 0002:000077c0       __log_F_inv_qword          000000014001b7c0     libucrt:log_f_inv_qword_table.obj
 0002:00007fd0       ??_C@_05HGHHAHAP@log10?$AA@ 000000014001bfd0     libucrt:log_special.obj
 0002:00007ff0       ??_C@_1BA@BALFACEM@?$AAC?$AAO?$AAN?$AAO?$AAU?$AAT?$AA$?$AA?$AA@ 000000014001bff0     libucrt:initcon.obj
 0002:00008060       _load_config_used          000000014001c060     LIBCMT:loadcfg.obj
 0002:000080f8       ?_TraceLoggingMetadata@?1??_TlgWrite@__vcrt_trace_logging_provider@@YAJPEBU_TlgProvider_t@2@PEFBXPEBU_GUID@@2IPEAU_EVENT_DATA_DESCRIPTOR@@@Z@4U_TraceLoggingMetadata_t@2@B 000000014001c0f8     libvcruntime:telemetry.obj
 0002:000081ab       ?_TraceLoggingMetadataEnd@?1??_TlgWrite@__vcrt_trace_logging_provider@@YAJPEBU_TlgProvider_t@2@PEFBXPEBU_GUID@@2IPEAU_EVENT_DATA_DESCRIPTOR@@@Z@4EB 000000014001c1ab     libvcruntime:telemetry.obj
 0002:000084f0       __rtc_iaa                  000000014001c4f0     LIBCMT:_initsect_.obj
 0002:000084f8       __rtc_izz                  000000014001c4f8     LIBCMT:_initsect_.obj
 0002:00008500       __rtc_taa                  000000014001c500     LIBCMT:_initsect_.obj
 0002:00008508       __rtc_tzz                  000000014001c508     LIBCMT:_initsect_.obj
 0002:0000922c       __IMPORT_DESCRIPTOR_USER32 000000014001d22c     user32:USER32.dll
 0002:00009240       __IMPORT_DESCRIPTOR_GDI32  000000014001d240     gdi32:GDI32.dll
 0002:00009254       __IMPORT_DESCRIPTOR_WINMM  000000014001d254     winmm:WINMM.dll
 0002:00009268       __IMPORT_DESCRIPTOR_KERNEL32 000000014001d268     kernel32:KERNEL32.dll
 0002:0000927c       __IMPORT_DESCRIPTOR_ADVAPI32 000000014001d27c     advapi32:ADVAPI32.dll
 0002:00009290       __NULL_IMPORT_DESCRIPTOR   000000014001d290     user32:USER32.dll
 0003:00000010       __security_cookie          000000014001e010     LIBCMT:gs_cookie.obj
 0003:00000018       __security_cookie_complement 000000014001e018     LIBCMT:gs_cookie.obj
 0003:00000020       _fltused                   000000014001e020     LIBCMT:fltused.obj
 0003:00000024       __scrt_native_dllmain_reason 000000014001e024     LIBCMT:utility.obj
 0003:00000028       __scrt_default_matherr     000000014001e028     LIBCMT:matherr.obj
 0003:00000030       __isa_available            000000014001e030     LIBCMT:_cpu_disp_.obj
 0003:00000034       __isa_enabled              000000014001e034     LIBCMT:_cpu_disp_.obj
 0003:00000038       __memcpy_nt_iters          000000014001e038     LIBCMT:_cpu_disp_.obj
 0003:00000094       __abort_behavior           000000014001e094     libucrt:abort.obj
 0003:000000b0       _iob                       000000014001e0b0     libucrt:_file.obj
 0003:000001c0       __acrt_initial_locale_data 000000014001e1c0     libucrt:nlsdata.obj
 0003:00000318       __acrt_initial_locale_pointers 000000014001e318     libucrt:nlsdata.obj
 0003:00000328       __acrt_wide_c_locale_string 000000014001e328     libucrt:nlsdata.obj
 0003:00000330       __acrt_initial_multibyte_data 000000014001e330     libucrt:mbctype.obj
 0003:00000558       __acrt_current_multibyte_data 000000014001e558     libucrt:mbctype.obj
 0003:00000660       _mbctype                   000000014001e660     libucrt:mbctype.obj
 0003:00000770       _mbcasemap                 000000014001e770     libucrt:mbctype.obj
 0003:00000870       __acrt_lconv_c             000000014001e870     libucrt:localeconv.obj
 0003:00000908       __acrt_lconv_static_decimal 000000014001e908     libucrt:localeconv.obj
 0003:0000090c       __acrt_lconv_static_W_decimal 000000014001e90c     libucrt:localeconv.obj
 0003:00000910       __globallocalestatus       000000014001e910     libucrt:glstatus.obj
 0003:00000938       __dcrt_lowio_console_output_handle 000000014001e938     libucrt:initcon.obj
 0003:00000940       ?_OptionsStorage@?1??__local_stdio_printf_options@@9@4_KA 000000014001e940     win32_handmade.obj
 0003:00000f20       __scrt_current_native_startup_state 000000014001ef20     LIBCMT:utility.obj
 0003:00000f28       __scrt_native_startup_lock 000000014001ef28     LIBCMT:utility.obj
 0003:00000f70       ?__type_info_root_node@@3U__type_info_node@@A 000000014001ef70     LIBCMT:tncleanup.obj
 0003:00000f80       ?_OptionsStorage@?1??__local_stdio_scanf_options@@9@4_KA 000000014001ef80     LIBCMT:default_local_stdio_options.obj
 0003:00000f88       __scrt_debugger_hook_flag  000000014001ef88     LIBCMT:utility_desktop.obj
 0003:00000f8c       __favor                    000000014001ef8c     LIBCMT:_cpu_disp_.obj
 0003:000010a8       __pPurecall                000000014001f0a8     libvcruntime:purevirt_data.obj
 0003:000010b0       ?pArgList@UnDecorator@@0PEAVReplicator@@EA 000000014001f0b0     libvcruntime:undname.obj
 0003:000010b8       ?pZNameList@UnDecorator@@0PEAVReplicator@@EA 000000014001f0b8     libvcruntime:undname.obj
 0003:000010c0       ?pTemplateArgList@UnDecorator@@0PEAVReplicator@@EA 000000014001f0c0     libvcruntime:undname.obj
 0003:000010c8       ?gName@UnDecorator@@0PEBDEB 000000014001f0c8     libvcruntime:undname.obj
 0003:000010d0       ?name@UnDecorator@@0PEBDEB 000000014001f0d0     libvcruntime:undname.obj
 0003:000010d8       ?outputString@UnDecorator@@0PEADEA 000000014001f0d8     libvcruntime:undname.obj
 0003:000010e0       ?maxStringLength@UnDecorator@@0HA 000000014001f0e0     libvcruntime:undname.obj
 0003:000010e4       ?disableFlags@UnDecorator@@0KA 000000014001f0e4     libvcruntime:undname.obj
 0003:000010e8       ?fExplicitTemplateParams@UnDecorator@@0_NA 000000014001f0e8     libvcruntime:undname.obj
 0003:000010e9       ?fGetTemplateArgumentList@UnDecorator@@0_NA 000000014001f0e9     libvcruntime:undname.obj
 0003:000010f0       ?m_pGetParameter@UnDecorator@@0P6APEADJ@ZEA 000000014001f0f0     libvcruntime:undname.obj
 0003:00001238       _environ_table             000000014001f238     libucrt:environment_initialization.obj
 0003:00001240       _wenviron_table            000000014001f240     libucrt:environment_initialization.obj
 0003:00001248       __dcrt_initial_wide_environment 000000014001f248     libucrt:environment_initialization.obj
 0003:00001250       __dcrt_initial_narrow_environment 000000014001f250     libucrt:environment_initialization.obj
 0003:0000126c       __acrt_locale_changed_data 000000014001f26c     libucrt:wsetlocale.obj
 0003:00001274       _commode                   000000014001f274     libucrt:ncommode.obj
 0003:00001278       __acrt_atexit_table        000000014001f278     libucrt:onexit.obj
 0003:00001290       __acrt_at_quick_exit_table 000000014001f290     libucrt:onexit.obj
 0003:000012b0       _nstream                   000000014001f2b0     libucrt:_file.obj
 0003:000012b8       __piob                     000000014001f2b8     libucrt:_file.obj
 0003:000012c8       __acrt_stdout_buffer       000000014001f2c8     libucrt:_sftbuf.obj
 0003:000012d0       __acrt_stderr_buffer       000000014001f2d0     libucrt:_sftbuf.obj
 0003:000012d8       __acrt_current_locale_data 000000014001f2d8     libucrt:nlsdata.obj
 0003:000012e0       __pioinfo                  000000014001f2e0     libucrt:ioinit.obj
 0003:000016e0       _nhandle                   000000014001f6e0     libucrt:ioinit.obj
 0003:000016e4       __mbcodepage               000000014001f6e4     libucrt:mbctype.obj
 0003:000016e8       __ismbcodepage             000000014001f6e8     libucrt:mbctype.obj
 0003:000016f0       __mbulinfo                 000000014001f6f0     libucrt:mbctype.obj
 0003:00001700       __mblocalename             000000014001f700     libucrt:mbctype.obj
 0003:0000170c       __argc                     000000014001f70c     libucrt:argv_data.obj
 0003:00001710       __argv                     000000014001f710     libucrt:argv_data.obj
 0003:00001718       __wargv                    000000014001f718     libucrt:argv_data.obj
 0003:00001720       _acmdln                    000000014001f720     libucrt:argv_data.obj
 0003:00001728       _wcmdln                    000000014001f728     libucrt:argv_data.obj
 0003:00001730       _pgmptr                    000000014001f730     libucrt:argv_data.obj
 0003:00001af4       _fmode                     000000014001faf4     libucrt:txtmode.obj
 0003:00001af8       __acrt_lconv_static_null   000000014001faf8     libucrt:localeconv.obj
 0003:00001afc       __acrt_lconv_static_W_null 000000014001fafc     libucrt:localeconv.obj
 0003:00001b00       __acrt_heap                000000014001fb00     libucrt:heap_handle.obj
 0003:00001b30       __fma3_is_available        000000014001fb30     libucrt:fma3_available.obj
 0003:00001b34       __use_fma3_lib             000000014001fb34     libucrt:fma3_available.obj
 0003:00001b38       __scrt_ucrt_dll_is_in_use  000000014001fb38     <common>
 0003:00001b40       __dyn_tls_dtor_callback    000000014001fb40     <common>
 0003:00001b48       __dyn_tls_init_callback    000000014001fb48     <common>
 0003:00001b50       _pDestructExceptionObject  000000014001fb50     <common>

 entry point at        0001:00003830

 Static symbols

 0000:fffdd000       .debug$S                   0000000140000000     kernel32:KERNEL32.dll
 0000:fffdd000       .debug$S                   0000000140000000     kernel32:KERNEL32.dll
 0000:fffdd000       .debug$S                   0000000140000000     kernel32:KERNEL32.dll
 0000:fffdd000       .debug$S                   0000000140000000     kernel32:KERNEL32.dll
 0000:fffdd000       .debug$S                   0000000140000000     kernel32:KERNEL32.dll
 0000:fffdd000       .debug$S                   0000000140000000     kernel32:KERNEL32.dll
 0000:fffdd000       .debug$S                   0000000140000000     kernel32:KERNEL32.dll
 0000:fffdd000       .debug$S                   0000000140000000     kernel32:KERNEL32.dll
 0000:fffdd000       .debug$S                   0000000140000000     kernel32:KERNEL32.dll
 0000:fffdd000       .debug$S                   0000000140000000     kernel32:KERNEL32.dll
 0000:fffdd000       .debug$S                   0000000140000000     kernel32:KERNEL32.dll
 0000:fffdd000       .debug$S                   0000000140000000     kernel32:KERNEL32.dll
 0000:fffdd000       .debug$S                   0000000140000000     kernel32:KERNEL32.dll
 0000:fffdd000       .debug$S                   0000000140000000     kernel32:KERNEL32.dll
 0000:fffdd000       .debug$S                   0000000140000000     kernel32:KERNEL32.dll
 0000:fffdd000       .debug$S                   0000000140000000     kernel32:KERNEL32.dll
 0000:fffdd000       .debug$S                   0000000140000000     kernel32:KERNEL32.dll
 0000:fffdd000       .debug$S                   0000000140000000     kernel32:KERNEL32.dll
 0000:fffdd000       .debug$S                   0000000140000000     kernel32:KERNEL32.dll
 0000:fffdd000       .debug$S                   0000000140000000     kernel32:KERNEL32.dll
 0000:fffdd000       .debug$S                   0000000140000000     kernel32:KERNEL32.dll
 0000:fffdd000       .debug$S                   0000000140000000     kernel32:KERNEL32.dll
 0000:fffdd000       .debug$S                   0000000140000000     advapi32:ADVAPI32.dll
 0000:fffdd000       .debug$S                   0000000140000000     kernel32:KERNEL32.dll
 0000:fffdd000       .debug$S                   0000000140000000     kernel32:KERNEL32.dll
 0000:fffdd000       .debug$S                   0000000140000000     kernel32:KERNEL32.dll
 0000:fffdd000       .debug$S                   0000000140000000     kernel32:KERNEL32.dll
 0000:fffdd000       .debug$S                   0000000140000000     kernel32:KERNEL32.dll
 0000:fffdd000       .debug$S                   0000000140000000     kernel32:KERNEL32.dll
 0000:fffdd000       .debug$S                   0000000140000000     kernel32:KERNEL32.dll
 0000:fffdd000       .debug$S                   0000000140000000     kernel32:KERNEL32.dll
 0000:fffdd000       .debug$S                   0000000140000000     kernel32:KERNEL32.dll
 0000:fffdd000       .debug$S                   0000000140000000     kernel32:KERNEL32.dll
 0000:fffdd000       .debug$S                   0000000140000000     kernel32:KERNEL32.dll
 0000:fffdd000       .debug$S                   0000000140000000     winmm:WINMM.dll
 0000:fffdd000       .debug$S                   0000000140000000     kernel32:KERNEL32.dll
 0000:fffdd000       .debug$S                   0000000140000000     gdi32:GDI32.dll
 0000:fffdd000       .debug$S                   0000000140000000     kernel32:KERNEL32.dll
 0000:fffdd000       .debug$S                   0000000140000000     user32:USER32.dll
 0000:fffdd000       .debug$S                   0000000140000000     kernel32:KERNEL32.dll
 0000:fffdd000       .debug$S                   0000000140000000     kernel32:KERNEL32.dll
 0000:fffdd000       .debug$S                   0000000140000000     kernel32:KERNEL32.dll
 0000:fffdd000       .debug$S                   0000000140000000     kernel32:KERNEL32.dll
 0000:fffdd000       .debug$S                   0000000140000000     kernel32:KERNEL32.dll
 0000:fffdd000       .debug$S                   0000000140000000     kernel32:KERNEL32.dll
 0000:fffdd000       .debug$S                   0000000140000000     kernel32:KERNEL32.dll
 0000:fffdd000       .debug$S                   0000000140000000     kernel32:KERNEL32.dll
 0000:fffdd000       .debug$S                   0000000140000000     kernel32:KERNEL32.dll
 0000:fffdd000       .debug$S                   0000000140000000     kernel32:KERNEL32.dll
 0000:fffdd000       .debug$S                   0000000140000000     kernel32:KERNEL32.dll
 0000:fffdd000       .debug$S                   0000000140000000     kernel32:KERNEL32.dll
 0000:fffdd000       .debug$S                   0000000140000000     kernel32:KERNEL32.dll
 0000:fffdd000       .debug$S                   0000000140000000     kernel32:KERNEL32.dll
 0000:fffdd000       .debug$S                   0000000140000000     kernel32:KERNEL32.dll
 0000:fffdd000       .debug$S                   0000000140000000     kernel32:KERNEL32.dll
 0000:fffdd000       .debug$S                   0000000140000000     kernel32:KERNEL32.dll
 0000:fffdd000       .debug$S                   0000000140000000     kernel32:KERNEL32.dll
 0000:fffdd000       .debug$S                   0000000140000000     kernel32:KERNEL32.dll
 0000:fffdd000       .debug$S                   0000000140000000     kernel32:KERNEL32.dll
 0000:fffdd000       .debug$S                   0000000140000000     kernel32:KERNEL32.dll
 0000:fffdd000       .debug$S                   0000000140000000     kernel32:KERNEL32.dll
 0000:fffdd000       .debug$S                   0000000140000000     kernel32:KERNEL32.dll
 0000:fffdd000       .debug$S                   0000000140000000     kernel32:KERNEL32.dll
 0000:fffdd000       .debug$S                   0000000140000000     kernel32:KERNEL32.dll
 0000:fffdd000       .debug$S                   0000000140000000     kernel32:KERNEL32.dll
 0000:fffdd000       .debug$S                   0000000140000000     kernel32:KERNEL32.dll
 0000:fffdd000       .debug$S                   0000000140000000     kernel32:KERNEL32.dll
 0000:fffdd000       .debug$S                   0000000140000000     kernel32:KERNEL32.dll
 0000:fffdd000       .debug$S                   0000000140000000     kernel32:KERNEL32.dll
 0000:fffdd000       .debug$S                   0000000140000000     kernel32:KERNEL32.dll
 0000:fffdd000       .debug$S                   0000000140000000     kernel32:KERNEL32.dll
 0000:fffdd000       .debug$S                   0000000140000000     kernel32:KERNEL32.dll
 0000:fffdd000       .debug$S                   0000000140000000     kernel32:KERNEL32.dll
 0000:fffdd000       .debug$S                   0000000140000000     kernel32:KERNEL32.dll
 0000:fffdd000       .debug$S                   0000000140000000     kernel32:KERNEL32.dll
 0000:fffdd000       .debug$S                   0000000140000000     kernel32:KERNEL32.dll
 0000:fffdd000       .debug$S                   0000000140000000     kernel32:KERNEL32.dll
 0000:fffdd000       .debug$S                   0000000140000000     kernel32:KERNEL32.dll
 0000:fffdd000       .debug$S                   0000000140000000     kernel32:KERNEL32.dll
 0000:fffdd000       .debug$S                   0000000140000000     kernel32:KERNEL32.dll
 0000:fffdd000       .debug$S                   0000000140000000     kernel32:KERNEL32.dll
 0000:fffdd000       .debug$S                   0000000140000000     kernel32:KERNEL32.dll
 0000:fffdd000       .debug$S                   0000000140000000     kernel32:KERNEL32.dll
 0000:fffdd000       .debug$S                   0000000140000000     kernel32:KERNEL32.dll
 0000:fffdd000       .debug$S                   0000000140000000     kernel32:KERNEL32.dll
 0000:fffdd000       .debug$S                   0000000140000000     kernel32:KERNEL32.dll
 0000:fffdd000       .debug$S                   0000000140000000     kernel32:KERNEL32.dll
 0000:fffdd000       .debug$S                   0000000140000000     kernel32:KERNEL32.dll
 0000:fffdd000       .debug$S                   0000000140000000     kernel32:KERNEL32.dll
 0000:fffdd000       .debug$S                   0000000140000000     kernel32:KERNEL32.dll
 0000:fffdd000       .debug$S                   0000000140000000     kernel32:KERNEL32.dll
 0000:fffdd000       .debug$S                   0000000140000000     kernel32:KERNEL32.dll
 0000:fffdd000       .debug$S                   0000000140000000     kernel32:KERNEL32.dll
 0000:fffdd000       .debug$S                   0000000140000000     kernel32:KERNEL32.dll
 0000:fffdd000       .debug$S                   0000000140000000     kernel32:KERNEL32.dll
 0000:fffdd000       .debug$S                   0000000140000000     kernel32:KERNEL32.dll
 0000:fffdd000       .debug$S                   0000000140000000     kernel32:KERNEL32.dll
 0000:fffdd000       .debug$S                   0000000140000000     kernel32:KERNEL32.dll
 0000:fffdd000       .debug$S                   0000000140000000     kernel32:KERNEL32.dll
 0000:fffdd000       .debug$S                   0000000140000000     kernel32:KERNEL32.dll
 0000:fffdd000       .debug$S                   0000000140000000     user32:USER32.dll
 0000:fffdd000       .debug$S                   0000000140000000     user32:USER32.dll
 0000:fffdd000       .debug$S                   0000000140000000     user32:USER32.dll
 0000:fffdd000       .debug$S                   0000000140000000     user32:USER32.dll
 0000:fffdd000       .debug$S                   0000000140000000     user32:USER32.dll
 0000:fffdd000       .debug$S                   0000000140000000     user32:USER32.dll
 0000:fffdd000       .debug$S                   0000000140000000     user32:USER32.dll
 0000:fffdd000       .debug$S                   0000000140000000     user32:USER32.dll
 0000:fffdd000       .debug$S                   0000000140000000     user32:USER32.dll
 0001:00001a40       ?Win32LoadGameCode@@YA?AUwin32_game_code@@PEAD0@Z 0000000140002a40 f   win32_handmade.obj
 0001:00001b60       ?Win32UnloadGameCode@@YAXPEAUwin32_game_code@@@Z 0000000140002b60 f   win32_handmade.obj
 0001:00001bc0       ?Wind32LoadXInput@@YAXXZ   0000000140002bc0 f   win32_handmade.obj
 0001:00001c80       ?Win32InitDSound@@YAXPEAUHWND__@@HH@Z 0000000140002c80 f   win32_handmade.obj
 0001:00001eb0       ?Win32GetWindowDimension@@YA?AUwin32_window_dimension@@PEAUHWND__@@@Z 0000000140002eb0 f   win32_handmade.obj
 0001:00001f20       ?Win32ResizeDIBSection@@YAXPEAUwin32_offscreen_buffer@@HH@Z 0000000140002f20 f   win32_handmade.obj
 0001:00002040       ?Win32DisplayBufferInWindow@@YAXPEAUwin32_offscreen_buffer@@PEAUHDC__@@HH@Z 0000000140003040 f   win32_handmade.obj
 0001:000020f0       ?Win32MainWindowCallback@@YA_JPEAUHWND__@@I_K_J@Z 00000001400030f0 f   win32_handmade.obj
 0001:000022b0       ?win32ClearBuffer@@YAXPEAUwin32_sound_output@@@Z 00000001400032b0 f   win32_handmade.obj
 0001:000023d0       ?Win32FillSoundBuffer@@YAXPEAUwin32_sound_output@@KKPEAUgame_sound_output_buffer@@@Z 00000001400033d0 f   win32_handmade.obj
 0001:00002600       ?Win32ProcessXInputDigitalButton@@YAXKPEAUgame_button_state@@0K@Z 0000000140003600 f   win32_handmade.obj
 0001:00002680       ?Win32ProcessKeyboardMessage@@YAXPEAUgame_button_state@@H@Z 0000000140003680 f   win32_handmade.obj
 0001:000026d0       ?Win32ProcessXInputStickValue@@YAMFF@Z 00000001400036d0 f   win32_handmade.obj
 0001:00002770       ?Win32ProcessPendingMessage@@YAXPEAUgame_controller_input@@@Z 0000000140003770 f   win32_handmade.obj
 0001:00002a90       ?Win32DebugDrawVertical@@YAXPEAUwin32_offscreen_buffer@@HHHI@Z 0000000140003a90 f   win32_handmade.obj
 0001:00002b70       ?Win32DebugSyncDisplay@@YAXPEAUwin32_offscreen_buffer@@HPEAUwin32_debug_time_marker@@HPEAUwin32_sound_output@@M@Z 0000000140003b70 f   win32_handmade.obj
 0001:00003000       ?CatStrings@@YAX_KPEAD0101@Z 0000000140004000 f   win32_handmade.obj
 0001:00003530       $$000000                   0000000140004530     LIBCMT:_chkstk_.obj
 0001:000035a0       $$000000                   00000001400045a0     LIBCMT:_amdsecgs_.obj
 0001:000035d4       ?pre_c_initialization@@YAHXZ 00000001400045d4 f   LIBCMT:exe_winmain.obj
 0001:00003688       ?post_pgo_initialization@@YAHXZ 0000000140004688 f   LIBCMT:exe_winmain.obj
 0001:00003698       ?pre_cpp_initialization@@YAXXZ 0000000140004698 f   LIBCMT:exe_winmain.obj
 0001:000036b4       ?__scrt_common_main_seh@@YAHXZ 00000001400046b4 f   LIBCMT:exe_winmain.obj
 0001:000039fc       capture_current_context    00000001400049fc f   LIBCMT:gs_report.obj
 0001:00003a6c       capture_previous_context   0000000140004a6c f   LIBCMT:gs_report.obj
 0001:00004348       _TlgDefineProvider_annotation__Tlg_Microsoft_CRTProviderProv 0000000140005348 f   libvcruntime:telemetry.obj
 0001:00004810       $$000000                   0000000140005810     libvcruntime:memset.obj
 0001:000048fc       MsetTab                    00000001400058fc     libvcruntime:memset.obj
 0001:000049c0       ?try_get_function@@YAPEAXW4function_id@?A0xece66f1d@@QEBDQEBW4module_id@2@2@Z 00000001400059c0 f   libvcruntime:winapi_downlevel.obj
 0001:00004f80       $$000000                   0000000140005f80     libvcruntime:_jmpuwind_.obj
 0001:0000511c       ??$common_vsprintf@Vformat_validation_base@__crt_stdio_output@@D@@YAH_KQEAD0QEBDQEAU__crt_locale_pointers@@1@Z 000000014000611c f   libucrt:output.obj
 0001:00006e08       ??$parse_command_line@D@@YAXPEADPEAPEAD0PEA_K2@Z 0000000140007e08 f   libucrt:argv_parsing.obj
 0001:000071a0       ??$common_initialize_environment_nolock@D@@YAHXZ 00000001400081a0 f   libucrt:environment_initialization.obj
 0001:0000720c       ??$create_environment@D@@YAQEAPEADQEAD@Z 000000014000820c f   libucrt:environment_initialization.obj
 0001:00007308       ??$free_environment@D@@YAXQEAPEAD@Z 0000000140008308 f   libucrt:environment_initialization.obj
 0001:00007308       ??$free_environment@_W@@YAXQEAPEA_W@Z 0000000140008308 f   libucrt:environment_initialization.obj
 0001:0000734c       ??$uninitialize_environment_internal@D@@YAXAEAPEAPEAD@Z 000000014000834c f   libucrt:environment_initialization.obj
 0001:00007368       ??$uninitialize_environment_internal@_W@@YAXAEAPEAPEA_W@Z 0000000140008368 f   libucrt:environment_initialization.obj
 0001:000074f8       ?atexit_exception_filter@@YAHK@Z 00000001400084f8 f   libucrt:exit.obj
 0001:00007504       ?common_exit@@YAXHW4_crt_exit_cleanup_mode@@W4_crt_exit_return_mode@@@Z 0000000140008504 f   libucrt:exit.obj
 0001:00007670       ?exit_or_terminate_process@@YAXI@Z 0000000140008670 f   libucrt:exit.obj
 0001:000076bc       ?try_cor_exit_process@@YAXI@Z 00000001400086bc f   libucrt:exit.obj
 0001:00007ac4       ??R<lambda_4e60a939b0d047cfe11ddc22648dfba9>@@QEBAHXZ 0000000140008ac4 f   libucrt:onexit.obj
 0001:00007d74       initialize_global_variables 0000000140008d74 f   libucrt:initialization.obj
 0001:00007d88       initialize_c               0000000140008d88 f   libucrt:initialization.obj
 0001:00007dac       uninitialize_environment   0000000140008dac f   libucrt:initialization.obj
 0001:00007dbc       uninitialize_global_state_isolation 0000000140008dbc f   libucrt:initialization.obj
 0001:00007dbc       uninitialize_c             0000000140008dbc f   libucrt:initialization.obj
 0001:00007dbc       initialize_environment     0000000140008dbc f   libucrt:initialization.obj
 0001:00007dbc       initialize_global_state_isolation 0000000140008dbc f   libucrt:initialization.obj
 0001:00007dbc       report_memory_leaks        0000000140008dbc f   libucrt:initialization.obj
 0001:00007dc0       initialize_pointers        0000000140008dc0 f   libucrt:initialization.obj
 0001:00007e14       uninitialize_vcruntime     0000000140008e14 f   libucrt:initialization.obj
 0001:00007e1c       uninitialize_allocated_memory 0000000140008e1c f   libucrt:initialization.obj
 0001:000086f4       ?internal_isupper_l@@YA_NHQEAU__crt_locale_pointers@@@Z 00000001400096f4 f   libucrt:tolower_toupper.obj
 0001:00009128       ?construct_ptd_array@@YAXQEAU__acrt_ptd@@@Z 000000014000a128 f   libucrt:per_thread_data.obj
 0001:000091f8       ?destroy_fls@@YAXPEAX@Z    000000014000a1f8 f   libucrt:per_thread_data.obj
 0001:00009218       ?destroy_ptd_array@@YAXQEAU__acrt_ptd@@@Z 000000014000a218 f   libucrt:per_thread_data.obj
 0001:00009310       ?replace_current_thread_locale_nolock@@YAXQEAU__acrt_ptd@@QEAU__crt_locale_data@@@Z 000000014000a310 f   libucrt:per_thread_data.obj
 0001:000095dc       ?fp_format_a@@YAHQEBNPEAD_KQEAD2H_NIQEAU__crt_locale_pointers@@@Z 000000014000a5dc f   libucrt:cvt.obj
 0001:0000993c       ?fp_format_e@@YAHQEBNQEAD_K12H_NIQEAU__crt_locale_pointers@@@Z 000000014000a93c f   libucrt:cvt.obj
 0001:00009a0c       ?fp_format_e_internal@@YAHQEAD_KH_NIQEAU_strflt@@2QEAU__crt_locale_pointers@@@Z 000000014000aa0c f   libucrt:cvt.obj
 0001:00009be8       ?fp_format_f_internal@@YAHQEAD_KHQEAU_strflt@@_NQEAU__crt_locale_pointers@@@Z 000000014000abe8 f   libucrt:cvt.obj
 0001:00009d30       ?fp_format_g@@YAHQEBNQEAD_K12H_NIQEAU__crt_locale_pointers@@@Z 000000014000ad30 f   libucrt:cvt.obj
 0001:00009e68       ?fp_format_nan_or_infinity@@YAHW4__acrt_fp_class@@_NPEAD_K1@Z 000000014000ae68 f   libucrt:cvt.obj
 0001:0000a3c4       ?initialize_inherited_file_handles_nolock@@YAXXZ 000000014000b3c4 f   libucrt:ioinit.obj
 0001:0000a4b0       ?initialize_stdio_handles_nolock@@YAXXZ 000000014000b4b0 f   libucrt:ioinit.obj
 0001:0000a628       ?<helper_func_cdecl>@<lambda_2167d6da13e96d861a9e9f7183643d37>@@CAHPEBX0@Z 000000014000b628 f   libucrt:argv_wildcards.obj
 0001:0000a63c       ??$common_expand_argv_wildcards@D@@YAHQEAPEADQEAPEAPEAD@Z 000000014000b63c f   libucrt:argv_wildcards.obj
 0001:0000a848       ??$copy_and_add_argument_to_buffer@D@@YAHQEBD0_KAEAV?$argument_list@D@?A0x7b96f60e@@@Z 000000014000b848 f   libucrt:argv_wildcards.obj
 0001:0000a958       ??$expand_argument_wildcards@D@@YAHQEAD0AEAV?$argument_list@D@?A0x7b96f60e@@@Z 000000014000b958 f   libucrt:argv_wildcards.obj
 0001:0000ac0c       ??R<lambda_ad1ced32f4ac17aa236e5ef05d6b3b7c>@@QEBAXXZ 000000014000bc0c f   libucrt:mbctype.obj
 0001:0000ae24       ?getSystemCP@@YAHH@Z       000000014000be24 f   libucrt:mbctype.obj
 0001:0000aea4       ?setSBCS@@YAXPEAU__crt_multibyte_data@@@Z 000000014000bea4 f   libucrt:mbctype.obj
 0001:0000af34       ?setSBUpLow@@YAXPEAU__crt_multibyte_data@@@Z 000000014000bf34 f   libucrt:mbctype.obj
 0001:0000b118       ?setmbcp_internal@@YAHH_N@Z 000000014000c118 f   libucrt:mbctype.obj
 0001:0000b660       ?x_ismbbtype_l@@YAHPEAU__crt_locale_pointers@@IHH@Z 000000014000c660 f   libucrt:ismbbyte.obj
 0001:0000b8d0       ?try_get_function@@YAPEAXW4function_id@?A0x1dd686d3@@QEBDQEBW4module_id@2@2@Z 000000014000c8d0 f   libucrt:winapi_thunks.obj
 0001:0000c348       ?free_crt_array_internal@@YAXQEAPEBX_K@Z 000000014000d348 f   libucrt:inittime.obj
 0001:0000d144       ?__acrt_LCMapStringA_stat@@YAHPEAU__crt_locale_pointers@@PEB_WKPEBDHPEADHHH@Z 000000014000e144 f   libucrt:lcmapstringa.obj
 0001:0000ee3c       memcpy_s                   000000014000fe3c f   libucrt:cfout.obj
 0001:0000f048       common_flush_all           0000000140010048 f   libucrt:fflush.obj
 0001:0000f1d0       ?shortsort@@YAXPEAD0_KP6AHPEBX2@Z@Z 00000001400101d0 f   libucrt:qsort.obj
 0001:0000f7e8       ?initialize_multibyte@@YAHXZ 00000001400107e8 f   libucrt:multibyte_initializer.obj
 0001:0000f800       ?GetTableIndexFromLocaleName@@YAHPEB_W@Z 0000000140010800 f   libucrt:lcidtoname_downlevel.obj
 0001:0000fb60       $$000000                   0000000140010b60     libucrt:log10.obj
 0001:0001010c       ?write_double_translated_ansi_nolock@@YA?AUwrite_result@?A0x4392dfaa@@HQEBDI@Z 000000014001110c f   libucrt:write.obj
 0001:00010314       ?write_text_ansi_nolock@@YA?AUwrite_result@?A0x4392dfaa@@HQEBDI@Z 0000000140011314 f   libucrt:write.obj
 0001:0001041c       ?write_text_utf16le_nolock@@YA?AUwrite_result@?A0x4392dfaa@@HQEBDI@Z 000000014001141c f   libucrt:write.obj
 0001:00010538       ?write_text_utf8_nolock@@YA?AUwrite_result@?A0x4392dfaa@@HQEBDI@Z 0000000140011538 f   libucrt:write.obj
 0001:00010a7c       ??$common_lseek_nolock@_J@@YA_JH_JH@Z 0000000140011a7c f   libucrt:lseek.obj
 0001:00010e60       common_control87           0000000140011e60 f   libucrt:ieee.obj
 0001:000110f8       _call_matherr              00000001400120f8 f   libucrt:libm_error.obj
 0001:00011160       _exception_enabled         0000000140012160 f   libucrt:libm_error.obj
 0001:000113f0       _log_special_common        00000001400123f0 f   libucrt:log_special.obj
 0001:00011700       $$000000                   0000000140012700     libucrt:fpsr.obj
 0001:00011cd0       $$000000                   0000000140012cd0     libvcruntime:memcpy.obj
 0001:00011d77       MoveSmall                  0000000140012d77     libvcruntime:memcpy.obj
 0001:00012120       $$000000                   0000000140013120     libvcruntime:memcmp.obj
 0001:00012340       $$000000                   0000000140013340     LIBCMT:_guard_dispatch_.obj
 0001:00012360       ?filt$0@?0??__scrt_common_main_seh@@YAHXZ@4HA 0000000140013360 f   LIBCMT:exe_winmain.obj
 0001:0001237e       __scrt_is_nonwritable_in_current_image$filt$0 000000014001337e f   LIBCMT:utility.obj
 0001:00012396       ?filt$0@?0??common_exit@@YAXHW4_crt_exit_cleanup_mode@@W4_crt_exit_return_mode@@@Z@4HA 0000000140013396 f   libucrt:exit.obj
 0001:000123b1       ?fin$1@?0??common_exit@@YAXHW4_crt_exit_cleanup_mode@@W4_crt_exit_return_mode@@@Z@4HA 00000001400133b1 f   libucrt:exit.obj
 0001:000123ca       __acrt_uninitialize_locale$fin$0 00000001400133ca f   libucrt:wsetlocale.obj
 0001:000123ca       __acrt_update_thread_locale_data$fin$0 00000001400133ca f   libucrt:locale_refcounting.obj
 0001:000123e3       ?fin$0@?0???$?RV<lambda_e24bbb7b643b32fcea6fa61b31d4c984>@@AEAV<lambda_275893d493268fdec8709772e3fcec0e>@@V<lambda_9d71df4d7cf3f480f8d633942495c3b0>@@@?$__crt_seh_guarded_call@H@@QEAAH$$QEAV<lambda_e24bbb7b643b32fcea6fa61b31d4c984>@@AEAV<lambda_275893d493268fdec8709772e3fcec0e>@@$$QEAV<lambda_9d71df4d7cf3f480f8d633942495c3b0>@@@Z@4HA 00000001400133e3 f   libucrt:onexit.obj
 0001:00012400       __acrt_update_thread_multibyte_data$fin$0 0000000140013400 f   libucrt:mbctype.obj
 0001:00012419       __acrt_lowio_ensure_fh_exists$fin$0 0000000140013419 f   libucrt:osfinfo.obj
 0001:00012419       __acrt_initialize_lowio$fin$0 0000000140013419 f   libucrt:ioinit.obj
 0001:00012432       _query_new_handler$fin$0   0000000140013432 f   libucrt:new_handler.obj
 0001:00012448       ?fin$0@?0???$?RV<lambda_fb3a7dec4e47f37f22dae91bb15c9095>@@AEAV<lambda_698284760c8add0bfb0756c19673e34b>@@V<lambda_dfb8eca1e75fef3034a8fb18dd509707>@@@?$__crt_seh_guarded_call@X@@QEAAX$$QEAV<lambda_fb3a7dec4e47f37f22dae91bb15c9095>@@AEAV<lambda_698284760c8add0bfb0756c19673e34b>@@$$QEAV<lambda_dfb8eca1e75fef3034a8fb18dd509707>@@@Z@4HA 0000000140013448 f   libucrt:per_thread_data.obj
 0001:00012448       ?fin$0@?0???$?RV<lambda_c36588078e9f5dfd39652860aa6b3aaf>@@AEAV<lambda_ec61778202f4f5fc7e7711acc23c3bca>@@V<lambda_dc9d2797ccde5d239b4a0efae8ebd7db>@@@?$__crt_seh_guarded_call@P6AXH@Z@@QEAAP6AXH@Z$$QEAV<lambda_c36588078e9f5dfd39652860aa6b3aaf>@@AEAV<lambda_ec61778202f4f5fc7e7711acc23c3bca>@@$$QEAV<lambda_dc9d2797ccde5d239b4a0efae8ebd7db>@@@Z@4HA 0000000140013448 f   libucrt:signal.obj
 0001:00012448       ?fin$0@?0???$?RV<lambda_72d1df2b273a38828b1ce30cbf4cdab5>@@AEAV<lambda_876a65b173b8412d3a47c70a915b0cf4>@@V<lambda_41932305e351933ebe8f8be3ed8bb5dc>@@@?$__crt_seh_guarded_call@X@@QEAAX$$QEAV<lambda_72d1df2b273a38828b1ce30cbf4cdab5>@@AEAV<lambda_876a65b173b8412d3a47c70a915b0cf4>@@$$QEAV<lambda_41932305e351933ebe8f8be3ed8bb5dc>@@@Z@4HA 0000000140013448 f   libucrt:per_thread_data.obj
 0001:00012448       ?fin$0@?0???$?RV<lambda_99476a1ad63dd22509b5d3e65b0ffc95>@@AEAV<lambda_ad1ced32f4ac17aa236e5ef05d6b3b7c>@@V<lambda_f7424dd8d45958661754dc4f2697e9c3>@@@?$__crt_seh_guarded_call@X@@QEAAX$$QEAV<lambda_99476a1ad63dd22509b5d3e65b0ffc95>@@AEAV<lambda_ad1ced32f4ac17aa236e5ef05d6b3b7c>@@$$QEAV<lambda_f7424dd8d45958661754dc4f2697e9c3>@@@Z@4HA 0000000140013448 f   libucrt:mbctype.obj
 0001:00012448       ?fin$0@?0???$?RV<lambda_46352004c1216016012b18bd6f87e700>@@AEAV<lambda_3bd07e1a1191394380780325891bf33f>@@V<lambda_334532d3f185bcaa59b5be82d7d22bff>@@@?$__crt_seh_guarded_call@X@@QEAAX$$QEAV<lambda_46352004c1216016012b18bd6f87e700>@@AEAV<lambda_3bd07e1a1191394380780325891bf33f>@@$$QEAV<lambda_334532d3f185bcaa59b5be82d7d22bff>@@@Z@4HA 0000000140013448 f   libucrt:per_thread_data.obj
 0001:00012448       ?fin$0@?0???$?RV<lambda_b8c45f8f788dd370798f47cfe8ac3a86>@@AEAV<lambda_4e60a939b0d047cfe11ddc22648dfba9>@@V<lambda_332c3edc96d0294ec56c57d38c1cdfd5>@@@?$__crt_seh_guarded_call@H@@QEAAH$$QEAV<lambda_b8c45f8f788dd370798f47cfe8ac3a86>@@AEAV<lambda_4e60a939b0d047cfe11ddc22648dfba9>@@$$QEAV<lambda_332c3edc96d0294ec56c57d38c1cdfd5>@@@Z@4HA 0000000140013448 f   libucrt:onexit.obj
 0001:00012448       ?fin$0@?0???$?RV<lambda_5e887d1dcbef67a5eb4283622ba103bf>@@AEAV<lambda_4466841279450cc726390878d4a41900>@@V<lambda_341c25c0346d94847f1f3c463c57e077>@@@?$__crt_seh_guarded_call@X@@QEAAX$$QEAV<lambda_5e887d1dcbef67a5eb4283622ba103bf>@@AEAV<lambda_4466841279450cc726390878d4a41900>@@$$QEAV<lambda_341c25c0346d94847f1f3c463c57e077>@@@Z@4HA 0000000140013448 f   libucrt:per_thread_data.obj
 0001:00012462       raise$fin$0                0000000140013462 f   libucrt:signal.obj
 0001:00012486       _fcloseall$fin$0           0000000140013486 f   libucrt:closeall.obj
 0001:0001249f       common_flush_all$fin$0     000000014001349f f   libucrt:fflush.obj
 0001:000124b9       common_flush_all$fin$1     00000001400134b9 f   libucrt:fflush.obj
 0001:000124d2       _write$fin$0               00000001400134d2 f   libucrt:write.obj
 0001:000124e9       fclose$fin$0               00000001400134e9 f   libucrt:fclose.obj
 0001:00012501       ?fin$0@?0???$?RV<lambda_b521505b218e5242e90febf6bfebc422>@@AEAV<lambda_6978c1fb23f02e42e1d9e99668cc68aa>@@V<lambda_314360699dd331753a4119843814e9a7>@@@?$__crt_seh_guarded_call@H@@QEAAH$$QEAV<lambda_b521505b218e5242e90febf6bfebc422>@@AEAV<lambda_6978c1fb23f02e42e1d9e99668cc68aa>@@$$QEAV<lambda_314360699dd331753a4119843814e9a7>@@@Z@4HA 0000000140013501 f   libucrt:commit.obj
 0001:00012501       ?fin$0@?0???$?RV<lambda_bfedae4ebbf01fab1bb6dcc6a9e276e0>@@AEAV<lambda_2fe9b910cf3cbf4a0ab98a02ba45b3ec>@@V<lambda_237c231691f317818eb88cc1d5d642d6>@@@?$__crt_seh_guarded_call@H@@QEAAH$$QEAV<lambda_bfedae4ebbf01fab1bb6dcc6a9e276e0>@@AEAV<lambda_2fe9b910cf3cbf4a0ab98a02ba45b3ec>@@$$QEAV<lambda_237c231691f317818eb88cc1d5d642d6>@@@Z@4HA 0000000140013501 f   libucrt:close.obj
 0001:0001251b       common_control87$filt$0    000000014001351b f   libucrt:ieee.obj
 0001:0001251b       _ctrlfp$filt$0             000000014001351b f   libucrt:fpctrl.obj
 0001:00012550       _IsNonwritableInCurrentImage$filt$0 0000000140013550 f   LIBCMT:pesect.obj
 0002:00000318       ?pre_cpp_initializer@@3P6AXXZEA 0000000140014318     LIBCMT:exe_winmain.obj
 0002:00000330       ?pre_c_initializer@@3P6AHXZEA 0000000140014330     LIBCMT:exe_winmain.obj
 0002:00000338       ?post_pgo_initializer@@3P6AHXZEA 0000000140014338     LIBCMT:exe_winmain.obj
 0002:000003a0       $SG88224                   00000001400143a0     win32_handmade.obj
 0002:000003b0       $SG88225                   00000001400143b0     win32_handmade.obj
 0002:000003c8       $SG88226                   00000001400143c8     win32_handmade.obj
 0002:000003e0       $SG88229                   00000001400143e0     win32_handmade.obj
 0002:000003f0       $SG88255                   00000001400143f0     win32_handmade.obj
 0002:00000428       $SG88263                   0000000140014428     win32_handmade.obj
 0002:00000448       $SG87775                   0000000140014448     win32_handmade.obj
 0002:00000460       $SG87776                   0000000140014460     win32_handmade.obj
 0002:00000478       $SG87788                   0000000140014478     win32_handmade.obj
 0002:00000488       $SG87790                   0000000140014488     win32_handmade.obj
 0002:00000498       $SG87792                   0000000140014498     win32_handmade.obj
 0002:000004a8       $SG87795                   00000001400144a8     win32_handmade.obj
 0002:000004b8       $SG87797                   00000001400144b8     win32_handmade.obj
 0002:000004c8       $SG87819                   00000001400144c8     win32_handmade.obj
 0002:000004d8       $SG87821                   00000001400144d8     win32_handmade.obj
 0002:000004f0       $SG87830                   00000001400144f0     win32_handmade.obj
 0002:00000510       $SG87832                   0000000140014510     win32_handmade.obj
 0002:00000538       $SG87869                   0000000140014538     win32_handmade.obj
 0002:00000548       $SG87873                   0000000140014548     win32_handmade.obj
 0002:00000580       $SG87875                   0000000140014580     win32_handmade.obj
 0002:000005d0       GS_ExceptionPointers       00000001400145d0     LIBCMT:gs_report.obj
 0002:00000610       ?module_names@?A0xece66f1d@@3QBQEB_WB 0000000140014610     libvcruntime:winapi_downlevel.obj
 0002:000006dc       ?candidate_modules@?1??try_get_EventRegister@@YAP6AKPEBU_GUID@@P6AX0KE_K1PEAU_EVENT_FILTER_DESCRIPTOR@@PEAX@Z3PEA_K@ZXZ@4QBW4module_id@?A0xece66f1d@@B 00000001400146dc     libvcruntime:winapi_downlevel.obj
 0002:000006f0       ?candidate_modules@?1??try_get_EventSetInformation@@YAP6AK_KW4_EVENT_INFO_CLASS@@PEAXK@ZXZ@4QBW4module_id@?A0xece66f1d@@B 00000001400146f0     libvcruntime:winapi_downlevel.obj
 0002:0000070c       ?candidate_modules@?1??try_get_EventUnregister@@YAP6AK_K@ZXZ@4QBW4module_id@?A0xece66f1d@@B 000000014001470c     libvcruntime:winapi_downlevel.obj
 0002:00000720       ?candidate_modules@?1??try_get_EventWriteTransfer@@YAP6AK_KPEBU_EVENT_DESCRIPTOR@@PEBU_GUID@@2KPEAU_EVENT_DATA_DESCRIPTOR@@@ZXZ@4QBW4module_id@?A0xece66f1d@@B 0000000140014720     libvcruntime:winapi_downlevel.obj
 0002:00000740       ?candidate_modules@?1??try_get_FlsAlloc@@YAP6AKP6AXPEAX@Z@ZXZ@4QBW4module_id@?A0xece66f1d@@B 0000000140014740     libvcruntime:winapi_downlevel.obj
 0002:00000758       ?candidate_modules@?1??try_get_FlsFree@@YAP6AHK@ZXZ@4QBW4module_id@?A0xece66f1d@@B 0000000140014758     libvcruntime:winapi_downlevel.obj
 0002:00000778       ?candidate_modules@?1??try_get_FlsSetValue@@YAP6AHKPEAX@ZXZ@4QBW4module_id@?A0xece66f1d@@B 0000000140014778     libvcruntime:winapi_downlevel.obj
 0002:00000790       ?candidate_modules@?1??try_get_InitializeCriticalSectionEx@@YAP6AHPEAU_RTL_CRITICAL_SECTION@@KK@ZXZ@4QBW4module_id@?A0xece66f1d@@B 0000000140014790     libvcruntime:winapi_downlevel.obj
 0002:00000c60       ?rttiTable@@3QBQEBDB       0000000140014c60     libvcruntime:undname.obj
 0002:00000c90       ?tokenTable@@3QBQEBDB      0000000140014c90     libvcruntime:undname.obj
 0002:00000d00       ?nameTable@@3QBQEBDB       0000000140014d00     libvcruntime:undname.obj
 0002:00001320       __acrt_initializers        0000000140015320     libucrt:initialization.obj
 0002:00001410       errtable                   0000000140015410     libucrt:errno.obj
 0002:00001c50       _mb_locale_names           0000000140015c50     libucrt:mbctype.obj
 0002:00001cb0       module_names               0000000140015cb0     libucrt:winapi_thunks.obj
 0002:000021e0       ?candidate_modules@?1??try_get_FlsAlloc@@YAP6AKP6AXPEAX@Z@ZXZ@4QBW4module_id@?A0x1dd686d3@@B 00000001400161e0     libucrt:winapi_thunks.obj
 0002:000021e8       ?candidate_modules@?1??try_get_FlsFree@@YAP6AHK@ZXZ@4QBW4module_id@?A0x1dd686d3@@B 00000001400161e8     libucrt:winapi_thunks.obj
 0002:000021f0       ?candidate_modules@?1??try_get_FlsGetValue@@YAP6APEAXK@ZXZ@4QBW4module_id@?A0x1dd686d3@@B 00000001400161f0     libucrt:winapi_thunks.obj
 0002:000021f8       ?candidate_modules@?1??try_get_FlsSetValue@@YAP6AHKPEAX@ZXZ@4QBW4module_id@?A0x1dd686d3@@B 00000001400161f8     libucrt:winapi_thunks.obj
 0002:00002200       ?candidate_modules@?1??try_get_GetCurrentPackageId@@YAP6AJPEAIPEAE@ZXZ@4QBW4module_id@?A0x1dd686d3@@B 0000000140016200     libucrt:winapi_thunks.obj
 0002:00002220       ?candidate_modules@?1??try_get_InitializeCriticalSectionEx@@YAP6AHPEAU_RTL_CRITICAL_SECTION@@KK@ZXZ@4QBW4module_id@?A0x1dd686d3@@B 0000000140016220     libucrt:winapi_thunks.obj
 0002:00002228       ?candidate_modules@?1??try_get_LCMapStringEx@@YAP6AHPEB_WK0HPEA_WHPEAU_nlsversioninfo@@PEAX_J@ZXZ@4QBW4module_id@?A0x1dd686d3@@B 0000000140016228     libucrt:winapi_thunks.obj
 0002:00002240       ?candidate_modules@?1??try_get_LocaleNameToLCID@@YAP6AKPEB_WK@ZXZ@4QBW4module_id@?A0x1dd686d3@@B 0000000140016240     libucrt:winapi_thunks.obj
 0002:00003260       LcidToLocaleNameTable      0000000140017260     libucrt:lcidtoname_downlevel.obj
 0002:00004cb0       LocaleNameToIndexTable     0000000140018cb0     libucrt:lcidtoname_downlevel.obj
 0002:00006550       __real_ninf                000000014001a550     libucrt:log10.obj
 0002:00006560       __real_inf                 000000014001a560     libucrt:log10.obj
 0002:00006570       __real_neg_qnan            000000014001a570     libucrt:log10.obj
 0002:00006580       __real_qnanbit             000000014001a580     libucrt:log10.obj
 0002:00006590       __int_1023                 000000014001a590     libucrt:log10.obj
 0002:000065a0       __mask_001                 000000014001a5a0     libucrt:log10.obj
 0002:000065b0       __mask_mant                000000014001a5b0     libucrt:log10.obj
 0002:000065c0       __mask_mant_top8           000000014001a5c0     libucrt:log10.obj
 0002:000065d0       __mask_mant9               000000014001a5d0     libucrt:log10.obj
 0002:000065e0       __real_log10_e             000000014001a5e0     libucrt:log10.obj
 0002:000065f0       __real_log10_e_lead        000000014001a5f0     libucrt:log10.obj
 0002:00006600       __real_log10_e_tail        000000014001a600     libucrt:log10.obj
 0002:00006610       __real_log10_2_lead        000000014001a610     libucrt:log10.obj
 0002:00006620       __real_log10_2_tail        000000014001a620     libucrt:log10.obj
 0002:00006630       __real_two                 000000014001a630     libucrt:log10.obj
 0002:00006640       __real_one                 000000014001a640     libucrt:log10.obj
 0002:00006650       __real_half                000000014001a650     libucrt:log10.obj
 0002:00006660       __mask_100                 000000014001a660     libucrt:log10.obj
 0002:00006670       __real_1_over_512          000000014001a670     libucrt:log10.obj
 0002:00006680       __real_1_over_2            000000014001a680     libucrt:log10.obj
 0002:00006690       __real_1_over_3            000000014001a690     libucrt:log10.obj
 0002:000066a0       __real_1_over_4            000000014001a6a0     libucrt:log10.obj
 0002:000066b0       __real_1_over_5            000000014001a6b0     libucrt:log10.obj
 0002:000066c0       __real_1_over_6            000000014001a6c0     libucrt:log10.obj
 0002:000066d0       __real_neg_1023            000000014001a6d0     libucrt:log10.obj
 0002:000066e0       __mask_2045                000000014001a6e0     libucrt:log10.obj
 0002:000066f0       __real_threshold           000000014001a6f0     libucrt:log10.obj
 0002:00006700       __real_near_one_lt         000000014001a700     libucrt:log10.obj
 0002:00006710       __real_near_one_gt         000000014001a710     libucrt:log10.obj
 0002:00006720       __real_min_norm            000000014001a720     libucrt:log10.obj
 0002:00006730       __real_notsign             000000014001a730     libucrt:log10.obj
 0002:00006740       __real_ca1                 000000014001a740     libucrt:log10.obj
 0002:00006750       __real_ca2                 000000014001a750     libucrt:log10.obj
 0002:00006760       __real_ca3                 000000014001a760     libucrt:log10.obj
 0002:00006770       __real_ca4                 000000014001a770     libucrt:log10.obj
 0002:00006780       __mask_lower               000000014001a780     libucrt:log10.obj
 0002:00006790       __flag_x_zero              000000014001a790     libucrt:log10.obj
 0002:00006794       __flag_x_neg               000000014001a794     libucrt:log10.obj
 0002:00006798       __flag_x_nan               000000014001a798     libucrt:log10.obj
 0002:00007fe0       __real@433fffffffffffff    000000014001bfe0     libucrt:fpsr.obj
 0002:00007fe8       __real@c33fffffffffffff    000000014001bfe8     libucrt:fpsr.obj
 0002:00008108       ?_TlgEvent@?3??__telemetry_main_invoke_trigger@@9@4U<unnamed-type-_TlgEvent>@?3??1@9@B 000000014001c108     libvcruntime:telemetry.obj
 0002:00008144       ?_TlgEvent@?3??__telemetry_main_return_trigger@@9@4U<unnamed-type-_TlgEvent>@?3??1@9@B 000000014001c144     libvcruntime:telemetry.obj
 0002:0000817f       ?_Tlg_Microsoft_CRTProviderProv_Meta@@3U<unnamed-type-_Tlg_Microsoft_CRTProviderProv_Meta>@@B 000000014001c17f     libvcruntime:telemetry.obj
 0002:00008510       $unwind$WinMain            000000014001c510     win32_handmade.obj
 0002:00008524       $unwind$?DEBUGPlatformFreeFileMemory@@YAXPEAX@Z 000000014001c524     win32_handmade.obj
 0002:0000852c       $unwind$?DEBUGPlatformReadEntireFile@@YA?AUdebug_read_file_result@@PEAD@Z 000000014001c52c     win32_handmade.obj
 0002:00008538       $unwind$?DEBUGPlatformWriteEntireFile@@YAHPEADIPEAX@Z 000000014001c538     win32_handmade.obj
 0002:00008540       $unwind$?Win32LoadGameCode@@YA?AUwin32_game_code@@PEAD0@Z 000000014001c540     win32_handmade.obj
 0002:0000854c       $unwind$?Win32UnloadGameCode@@YAXPEAUwin32_game_code@@@Z 000000014001c54c     win32_handmade.obj
 0002:00008554       $unwind$?Wind32LoadXInput@@YAXXZ 000000014001c554     win32_handmade.obj
 0002:0000855c       $unwind$?Win32InitDSound@@YAXPEAUHWND__@@HH@Z 000000014001c55c     win32_handmade.obj
 0002:00008570       $unwind$?Win32GetWindowDimension@@YA?AUwin32_window_dimension@@PEAUHWND__@@@Z 000000014001c570     win32_handmade.obj
 0002:00008580       $unwind$?Win32ResizeDIBSection@@YAXPEAUwin32_offscreen_buffer@@HH@Z 000000014001c580     win32_handmade.obj
 0002:00008588       $unwind$?Win32DisplayBufferInWindow@@YAXPEAUwin32_offscreen_buffer@@PEAUHDC__@@HH@Z 000000014001c588     win32_handmade.obj
 0002:00008590       $unwind$?Win32MainWindowCallback@@YA_JPEAUHWND__@@I_K_J@Z 000000014001c590     win32_handmade.obj
 0002:000085a0       $unwind$?win32ClearBuffer@@YAXPEAUwin32_sound_output@@@Z 000000014001c5a0     win32_handmade.obj
 0002:000085a8       $unwind$?Win32FillSoundBuffer@@YAXPEAUwin32_sound_output@@KKPEAUgame_sound_output_buffer@@@Z 000000014001c5a8     win32_handmade.obj
 0002:000085b0       $unwind$?Win32ProcessXInputDigitalButton@@YAXKPEAUgame_button_state@@0K@Z 000000014001c5b0     win32_handmade.obj
 0002:000085b8       $unwind$?Win32ProcessPendingMessage@@YAXPEAUgame_controller_input@@@Z 000000014001c5b8     win32_handmade.obj
 0002:000085c0       $unwind$?Win32DebugDrawVertical@@YAXPEAUwin32_offscreen_buffer@@HHHI@Z 000000014001c5c0     win32_handmade.obj
 0002:000085c8       $unwind$?Win32DebugSyncDisplay@@YAXPEAUwin32_offscreen_buffer@@HPEAUwin32_debug_time_marker@@HPEAUwin32_sound_output@@M@Z 000000014001c5c8     win32_handmade.obj
 0002:000085d0       $unwind$?CatStrings@@YAX_KPEAD0101@Z 000000014001c5d0     win32_handmade.obj
 0002:000085d8       $unwind$??$_snprintf_s@$0BAA@@@YAHAEAY0BAA@D_KPEBDZZ 000000014001c5d8     win32_handmade.obj
 0002:000085d8       $unwind$vsnprintf          000000014001c5d8     win32_handmade.obj
 0002:000085e0       $unwind$_vsnprintf_s_l     000000014001c5e0     win32_handmade.obj
 0002:000085e8       $unwind$snprintf           000000014001c5e8     win32_handmade.obj
 0002:000085e8       $unwind$_vsnprintf_s       000000014001c5e8     win32_handmade.obj
 0002:000085f0       $unwind$?SafeTruncateUInt64@@YAI_K@Z 000000014001c5f0     win32_handmade.obj
 0002:000085f8       $unwind$?Win32GetLastWriteTime@@YA?AU_FILETIME@@PEAD@Z 000000014001c5f8     win32_handmade.obj
 0002:0000860c       $unwind$_invalid_parameter_noinfo 000000014001c60c     libucrt:invalid_parameter.obj
 0002:0000860c       $unwind$_log10_special     000000014001c60c     libucrt:log_special.obj
 0002:0000860c       $unwind$?Win32GetWallClock@@YA?AT_LARGE_INTEGER@@XZ 000000014001c60c     win32_handmade.obj
 0002:0000860c       $unwind$wctomb_s           000000014001c60c     libucrt:wctomb.obj
 0002:00008614       $unwind$?Win32DrawSoundBufferMarker@@YAXPEAUwin32_offscreen_buffer@@PEAUwin32_sound_output@@MHHHKI@Z 000000014001c614     win32_handmade.obj
 0002:0000861c       $unwind$__GSHandlerCheckCommon 000000014001c61c     LIBCMT:_gshandler_.obj
 0002:00008628       $xdatasym                  000000014001c628     LIBCMT:_chkstk_.obj
 0002:00008630       $xdatasym                  000000014001c630     LIBCMT:_amdsecgs_.obj
 0002:00008634       $unwind$?__scrt_common_main_seh@@YAHXZ 000000014001c634     LIBCMT:exe_winmain.obj
 0002:00008658       $unwind$__report_securityfailure 000000014001c658     LIBCMT:gs_report.obj
 0002:00008660       $unwind$capture_current_context 000000014001c660     LIBCMT:gs_report.obj
 0002:0000866c       $unwind$capture_previous_context 000000014001c66c     LIBCMT:gs_report.obj
 0002:00008678       $unwind$__scrt_is_nonwritable_in_current_image 000000014001c678     LIBCMT:utility.obj
 0002:00008698       $unwind$__scrt_is_nonwritable_in_current_image$filt$0 000000014001c698     LIBCMT:utility.obj
 0002:000086a0       $unwind$initialize_pointers 000000014001c6a0     libucrt:initialization.obj
 0002:000086a0       $unwind$uninitialize_allocated_memory 000000014001c6a0     libucrt:initialization.obj
 0002:000086a0       $unwind$?pre_c_initialization@@YAHXZ 000000014001c6a0     LIBCMT:exe_winmain.obj
 0002:000086a0       $unwind$_fflush_nolock     000000014001c6a0     libucrt:fflush.obj
 0002:000086a0       $unwind$__acrt_uninitialize_winapi_thunks 000000014001c6a0     libucrt:winapi_thunks.obj
 0002:000086a0       $unwind$?exit_or_terminate_process@@YAXI@Z 000000014001c6a0     libucrt:exit.obj
 0002:000086a0       $unwind$??0?$output_processor@DV?$string_output_adapter@D@__crt_stdio_output@@V?$format_validation_base@DV?$string_output_adapter@D@__crt_stdio_output@@@2@@__crt_stdio_output@@QEAA@AEBV?$string_output_adapter@D@1@_KQEBDQEAU__crt_locale_pointers@@QEAD@Z 000000014001c6a0     libucrt:output.obj
 0002:000086a0       $unwind$_calloc_base       000000014001c6a0     libucrt:calloc_base.obj
 0002:000086a0       $unwind$_malloc_base       000000014001c6a0     libucrt:malloc_base.obj
 0002:000086a0       $unwind$_setfpstatusword   000000014001c6a0     libucrt:_fenvutils.obj
 0002:000086a0       $unwind$fesetenv           000000014001c6a0     libucrt:fesetenv.obj
 0002:000086a0       $unwind$__acrt_allocate_buffer_for_argv 000000014001c6a0     libucrt:argv_parsing.obj
 0002:000086a0       $unwind$__raise_securityfailure 000000014001c6a0     LIBCMT:gs_report.obj
 0002:000086a0       $unwind$?type_case_integer@?$output_processor@DV?$string_output_adapter@D@__crt_stdio_output@@V?$standard_base@DV?$string_output_adapter@D@__crt_stdio_output@@@2@@__crt_stdio_output@@AEAA_NI_N@Z 000000014001c6a0     libucrt:output.obj
 0002:000086a0       $unwind$_onexit            000000014001c6a0     LIBCMT:utility.obj
 0002:000086a0       $unwind$feholdexcept       000000014001c6a0     libucrt:feholdexcept.obj
 0002:000086a0       $unwind$__scrt_release_startup_lock 000000014001c6a0     LIBCMT:utility.obj
 0002:000086a0       $unwind$fegetenv           000000014001c6a0     libucrt:fegetenv.obj
 0002:000086a0       $unwind$__acrt_initialize_locks 000000014001c6a0     libucrt:locks.obj
 0002:000086a0       $unwind$strcpy_s           000000014001c6a0     libucrt:strcpy_s.obj
 0002:000086a0       $unwind$?state_case_normal@?$output_processor@DV?$string_output_adapter@D@__crt_stdio_output@@V?$format_validation_base@DV?$string_output_adapter@D@__crt_stdio_output@@@2@@__crt_stdio_output@@AEAA_NXZ 000000014001c6a0     libucrt:output.obj
 0002:000086a0       $unwind$__acrt_fp_strflt_to_string 000000014001c6a0     libucrt:_fptostr.obj
 0002:000086a0       $unwind$__acrt_stdio_free_buffer_nolock 000000014001c6a0     libucrt:_freebuf.obj
 0002:000086a0       $unwind$__acrt_update_multibyte_info 000000014001c6a0     libucrt:locale_update.obj
 0002:000086a0       $unwind$?type_case_integer@?$output_processor@DV?$string_output_adapter@D@__crt_stdio_output@@V?$format_validation_base@DV?$string_output_adapter@D@__crt_stdio_output@@@2@@__crt_stdio_output@@AEAA_NI_N@Z 000000014001c6a0     libucrt:output.obj
 0002:000086a0       $unwind$__acrt_update_locale_info 000000014001c6a0     libucrt:locale_update.obj
 0002:000086a0       $unwind$__vcrt_uninitialize 000000014001c6a0     libvcruntime:initialization.obj
 0002:000086a0       $unwind$__scrt_initialize_crt 000000014001c6a0     LIBCMT:utility.obj
 0002:000086a0       $unwind$?state_case_normal@?$output_processor@DV?$string_output_adapter@D@__crt_stdio_output@@V?$standard_base@DV?$string_output_adapter@D@__crt_stdio_output@@@2@@__crt_stdio_output@@AEAA_NXZ 000000014001c6a0     libucrt:output.obj
 0002:000086a0       $unwind$_clearfp           000000014001c6a0     libucrt:ieee.obj
 0002:000086a0       $unwind$__acrt_uninitialize_stdio 000000014001c6a0     libucrt:_file.obj
 0002:000086a0       $unwind$??0?$output_processor@DV?$string_output_adapter@D@__crt_stdio_output@@V?$standard_base@DV?$string_output_adapter@D@__crt_stdio_output@@@2@@__crt_stdio_output@@QEAA@AEBV?$string_output_adapter@D@1@_KQEBDQEAU__crt_locale_pointers@@QEAD@Z 000000014001c6a0     libucrt:output.obj
 0002:000086a0       $unwind$__scrt_uninitialize_crt 000000014001c6a0     LIBCMT:utility.obj
 0002:000086a0       $unwind$__vcrt_initialize_locks 000000014001c6a0     libvcruntime:locks.obj
 0002:000086a0       $unwind$_set_statfp        000000014001c6a0     libucrt:fpctrl.obj
 0002:000086a0       $unwind$__vcrt_uninitialize_locks 000000014001c6a0     libvcruntime:locks.obj
 0002:000086a0       $unwind$__acrt_uninitialize_locks 000000014001c6a0     libucrt:locks.obj
 0002:000086a0       $unwind$_clrfp             000000014001c6a0     libucrt:fpctrl.obj
 0002:000086a0       $unwind$_configthreadlocale 000000014001c6a0     libucrt:wsetlocale.obj
 0002:000086a8       $unwind$__scrt_initialize_onexit_tables 000000014001c6a8     LIBCMT:utility.obj
 0002:000086b4       $unwind$__security_init_cookie 000000014001c6b4     LIBCMT:gs_support.obj
 0002:000086c0       $unwind$__scrt_get_show_window_mode 000000014001c6c0     LIBCMT:utility_desktop.obj
 0002:000086c8       $unwind$__scrt_fastfail    000000014001c6c8     LIBCMT:utility_desktop.obj
 0002:000086d8       $unwind$__isa_available_init 000000014001c6d8     LIBCMT:_cpu_disp_.obj
 0002:000086e8       $xdatasym                  000000014001c6e8     LIBCMT:_guard_dispatch_.obj
 0002:000086ec       $unwind$__telemetry_main_invoke_trigger 000000014001c6ec     libvcruntime:telemetry.obj
 0002:000086ec       $unwind$__telemetry_main_return_trigger 000000014001c6ec     libvcruntime:telemetry.obj
 0002:00008704       $unwind$?_TlgEnableCallback@__vcrt_trace_logging_provider@@YAXPEBU_GUID@@KE_K1PEAU_EVENT_FILTER_DESCRIPTOR@@PEAX@Z 000000014001c704     libvcruntime:telemetry.obj
 0002:00008720       $unwind$__C_specific_handler 000000014001c720     libvcruntime:_chandler_.obj
 0002:00008740       $xdatasym                  000000014001c740     libvcruntime:memset.obj
 0002:00008744       $unwind$__vcrt_EventRegister 000000014001c744     libvcruntime:winapi_downlevel.obj
 0002:00008744       $unwind$__vcrt_EventSetInformation 000000014001c744     libvcruntime:winapi_downlevel.obj
 0002:00008744       $unwind$_initterm          000000014001c744     libucrt:initterm.obj
 0002:00008744       $unwind$__acrt_initialize_stdio 000000014001c744     libucrt:_file.obj
 0002:0000875c       $unwind$__vcrt_uninitialize_winapi_thunks 000000014001c75c     libvcruntime:winapi_downlevel.obj
 0002:00008764       $unwind$?try_get_function@@YAPEAXW4function_id@?A0x1dd686d3@@QEBDQEBW4module_id@2@2@Z 000000014001c764     libucrt:winapi_thunks.obj
 0002:00008764       $unwind$?try_get_function@@YAPEAXW4function_id@?A0xece66f1d@@QEBDQEBW4module_id@2@2@Z 000000014001c764     libvcruntime:winapi_downlevel.obj
 0002:00008780       $xdatasym                  000000014001c780     libvcruntime:_jmpuwind_.obj
 0002:00008794       $unwind$__stdio_common_vsprintf 000000014001c794     libucrt:output.obj
 0002:000087b8       $unwind$__stdio_common_vsnprintf_s 000000014001c7b8     libucrt:output.obj
 0002:000087d0       $unwind$?process@?$output_processor@DV?$string_output_adapter@D@__crt_stdio_output@@V?$standard_base@DV?$string_output_adapter@D@__crt_stdio_output@@@2@@__crt_stdio_output@@QEAAHXZ 000000014001c7d0     libucrt:output.obj
 0002:000087e0       $unwind$?parse_int_from_format_string@?$output_processor@DV?$string_output_adapter@D@__crt_stdio_output@@V?$format_validation_base@DV?$string_output_adapter@D@__crt_stdio_output@@@2@@__crt_stdio_output@@AEAA_NQEAH@Z 000000014001c7e0     libucrt:output.obj
 0002:000087e0       $unwind$?parse_int_from_format_string@?$output_processor@DV?$string_output_adapter@D@__crt_stdio_output@@V?$standard_base@DV?$string_output_adapter@D@__crt_stdio_output@@@2@@__crt_stdio_output@@AEAA_NQEAH@Z 000000014001c7e0     libucrt:output.obj
 0002:000087f4       $unwind$??$common_vsprintf@Vformat_validation_base@__crt_stdio_output@@D@@YAH_KQEAD0QEBDQEAU__crt_locale_pointers@@1@Z 000000014001c7f4     libucrt:output.obj
 0002:00008814       $unwind$?state_case_type@?$output_processor@DV?$string_output_adapter@D@__crt_stdio_output@@V?$format_validation_base@DV?$string_output_adapter@D@__crt_stdio_output@@@2@@__crt_stdio_output@@AEAA_NXZ 000000014001c814     libucrt:output.obj
 0002:00008814       $unwind$?state_case_type@?$output_processor@DV?$string_output_adapter@D@__crt_stdio_output@@V?$standard_base@DV?$string_output_adapter@D@__crt_stdio_output@@@2@@__crt_stdio_output@@AEAA_NXZ 000000014001c814     libucrt:output.obj
 0002:0000882c       $unwind$?type_case_a@?$output_processor@DV?$string_output_adapter@D@__crt_stdio_output@@V?$format_validation_base@DV?$string_output_adapter@D@__crt_stdio_output@@@2@@__crt_stdio_output@@AEAA_NXZ 000000014001c82c     libucrt:output.obj
 0002:0000882c       $unwind$?type_case_a@?$output_processor@DV?$string_output_adapter@D@__crt_stdio_output@@V?$standard_base@DV?$string_output_adapter@D@__crt_stdio_output@@@2@@__crt_stdio_output@@AEAA_NXZ 000000014001c82c     libucrt:output.obj
 0002:00008838       $unwind$?write_stored_string_tchar@?$output_processor@DV?$string_output_adapter@D@__crt_stdio_output@@V?$standard_base@DV?$string_output_adapter@D@__crt_stdio_output@@@2@@__crt_stdio_output@@AEAA_ND@Z 000000014001c838     libucrt:output.obj
 0002:00008838       $unwind$?write_stored_string_tchar@?$output_processor@DV?$string_output_adapter@D@__crt_stdio_output@@V?$format_validation_base@DV?$string_output_adapter@D@__crt_stdio_output@@@2@@__crt_stdio_output@@AEAA_ND@Z 000000014001c838     libucrt:output.obj
 0002:00008850       $unwind$??$type_case_integer_parse_into_buffer@I@?$output_processor@DV?$string_output_adapter@D@__crt_stdio_output@@V?$standard_base@DV?$string_output_adapter@D@__crt_stdio_output@@@2@@__crt_stdio_output@@AEAAXII_N@Z 000000014001c850     libucrt:output.obj
 0002:00008850       $unwind$??$type_case_integer_parse_into_buffer@I@?$output_processor@DV?$string_output_adapter@D@__crt_stdio_output@@V?$format_validation_base@DV?$string_output_adapter@D@__crt_stdio_output@@@2@@__crt_stdio_output@@AEAAXII_N@Z 000000014001c850     libucrt:output.obj
 0002:00008850       $unwind$??$type_case_integer_parse_into_buffer@_K@?$output_processor@DV?$string_output_adapter@D@__crt_stdio_output@@V?$standard_base@DV?$string_output_adapter@D@__crt_stdio_output@@@2@@__crt_stdio_output@@AEAAX_KI_N@Z 000000014001c850     libucrt:output.obj
 0002:00008850       $unwind$??$type_case_integer_parse_into_buffer@_K@?$output_processor@DV?$string_output_adapter@D@__crt_stdio_output@@V?$format_validation_base@DV?$string_output_adapter@D@__crt_stdio_output@@@2@@__crt_stdio_output@@AEAAX_KI_N@Z 000000014001c850     libucrt:output.obj
 0002:00008850       $unwind$??$write_multiple_characters@V?$string_output_adapter@D@__crt_stdio_output@@D@__crt_stdio_output@@YAXAEBV?$string_output_adapter@D@0@DHQEAH@Z 000000014001c850     libucrt:output.obj
 0002:00008858       $unwind$?setSBCS@@YAXPEAU__crt_multibyte_data@@@Z 000000014001c858     libucrt:mbctype.obj
 0002:00008858       $unwind$__vcrt_InitializeCriticalSectionEx 000000014001c858     libvcruntime:winapi_downlevel.obj
 0002:00008858       $unwind$_seh_filter_exe    000000014001c858     libucrt:exception_filter.obj
 0002:00008858       $unwind$?expand_if_necessary@?$argument_list@D@?A0x7b96f60e@@AEAAHXZ 000000014001c858     libucrt:argv_wildcards.obj
 0002:00008858       $unwind$__acrt_lowio_create_handle_array 000000014001c858     libucrt:osfinfo.obj
 0002:00008858       $unwind$?process@?$output_processor@DV?$string_output_adapter@D@__crt_stdio_output@@V?$format_validation_base@DV?$string_output_adapter@D@__crt_stdio_output@@@2@@__crt_stdio_output@@QEAAHXZ 000000014001c858     libucrt:output.obj
 0002:00008858       $unwind$_recalloc_base     000000014001c858     libucrt:recalloc.obj
 0002:00008858       $unwind$__acrt_execute_initializers 000000014001c858     libucrt:shared_initialization.obj
 0002:00008858       $unwind$__acrt_free_locale 000000014001c858     libucrt:locale_refcounting.obj
 0002:00008858       $unwind$??$ensure_buffer_is_big_enough@D@formatting_buffer@__crt_stdio_output@@QEAA_N_K@Z 000000014001c858     libucrt:output.obj
 0002:00008858       $unwind$__acrt_InitializeCriticalSectionEx 000000014001c858     libucrt:winapi_thunks.obj
 0002:0000886c       $unwind$_configure_narrow_argv 000000014001c86c     libucrt:argv_parsing.obj
 0002:00008880       $unwind$??$free_environment@_W@@YAXQEAPEA_W@Z 000000014001c880     libucrt:environment_initialization.obj
 0002:00008880       $unwind$??$free_environment@D@@YAXQEAPEAD@Z 000000014001c880     libucrt:environment_initialization.obj
 0002:0000888c       $unwind$??$create_environment@D@@YAQEAPEADQEAD@Z 000000014001c88c     libucrt:environment_initialization.obj
 0002:000088a4       $unwind$?common_exit@@YAXHW4_crt_exit_cleanup_mode@@W4_crt_exit_return_mode@@@Z 000000014001c8a4     libucrt:exit.obj
 0002:000088e4       $unwind$__acrt_uninitialize_locale 000000014001c8e4     libucrt:wsetlocale.obj
 0002:00008904       $unwind$?fin$0@?0???$?RV<lambda_72d1df2b273a38828b1ce30cbf4cdab5>@@AEAV<lambda_876a65b173b8412d3a47c70a915b0cf4>@@V<lambda_41932305e351933ebe8f8be3ed8bb5dc>@@@?$__crt_seh_guarded_call@X@@QEAAX$$QEAV<lambda_72d1df2b273a38828b1ce30cbf4cdab5>@@AEAV<lambda_876a65b173b8412d3a47c70a915b0cf4>@@$$QEAV<lambda_41932305e351933ebe8f8be3ed8bb5dc>@@@Z@4HA 000000014001c904     libucrt:per_thread_data.obj
 0002:00008904       $unwind$raise$fin$0        000000014001c904     libucrt:signal.obj
 0002:00008904       $unwind$__acrt_update_thread_locale_data$fin$0 000000014001c904     libucrt:locale_refcounting.obj
 0002:00008904       $unwind$__acrt_initialize_lowio$fin$0 000000014001c904     libucrt:ioinit.obj
 0002:00008904       $unwind$?fin$0@?0???$?RV<lambda_5e887d1dcbef67a5eb4283622ba103bf>@@AEAV<lambda_4466841279450cc726390878d4a41900>@@V<lambda_341c25c0346d94847f1f3c463c57e077>@@@?$__crt_seh_guarded_call@X@@QEAAX$$QEAV<lambda_5e887d1dcbef67a5eb4283622ba103bf>@@AEAV<lambda_4466841279450cc726390878d4a41900>@@$$QEAV<lambda_341c25c0346d94847f1f3c463c57e077>@@@Z@4HA 000000014001c904     libucrt:per_thread_data.obj
 0002:00008904       $unwind$?fin$1@?0??common_exit@@YAXHW4_crt_exit_cleanup_mode@@W4_crt_exit_return_mode@@@Z@4HA 000000014001c904     libucrt:exit.obj
 0002:00008904       $unwind$__acrt_lowio_ensure_fh_exists$fin$0 000000014001c904     libucrt:osfinfo.obj
 0002:00008904       $unwind$fclose$fin$0       000000014001c904     libucrt:fclose.obj
 0002:00008904       $unwind$?filt$0@?0??__scrt_common_main_seh@@YAHXZ@4HA 000000014001c904     LIBCMT:exe_winmain.obj
 0002:00008904       $unwind$?fin$0@?0???$?RV<lambda_b521505b218e5242e90febf6bfebc422>@@AEAV<lambda_6978c1fb23f02e42e1d9e99668cc68aa>@@V<lambda_314360699dd331753a4119843814e9a7>@@@?$__crt_seh_guarded_call@H@@QEAAH$$QEAV<lambda_b521505b218e5242e90febf6bfebc422>@@AEAV<lambda_6978c1fb23f02e42e1d9e99668cc68aa>@@$$QEAV<lambda_314360699dd331753a4119843814e9a7>@@@Z@4HA 000000014001c904     libucrt:commit.obj
 0002:00008904       $unwind$common_flush_all$fin$0 000000014001c904     libucrt:fflush.obj
 0002:00008904       $unwind$__acrt_uninitialize_locale$fin$0 000000014001c904     libucrt:wsetlocale.obj
 0002:00008904       $unwind$?fin$0@?0???$?RV<lambda_e24bbb7b643b32fcea6fa61b31d4c984>@@AEAV<lambda_275893d493268fdec8709772e3fcec0e>@@V<lambda_9d71df4d7cf3f480f8d633942495c3b0>@@@?$__crt_seh_guarded_call@H@@QEAAH$$QEAV<lambda_e24bbb7b643b32fcea6fa61b31d4c984>@@AEAV<lambda_275893d493268fdec8709772e3fcec0e>@@$$QEAV<lambda_9d71df4d7cf3f480f8d633942495c3b0>@@@Z@4HA 000000014001c904     libucrt:onexit.obj
 0002:00008904       $unwind$?fin$0@?0???$?RV<lambda_99476a1ad63dd22509b5d3e65b0ffc95>@@AEAV<lambda_ad1ced32f4ac17aa236e5ef05d6b3b7c>@@V<lambda_f7424dd8d45958661754dc4f2697e9c3>@@@?$__crt_seh_guarded_call@X@@QEAAX$$QEAV<lambda_99476a1ad63dd22509b5d3e65b0ffc95>@@AEAV<lambda_ad1ced32f4ac17aa236e5ef05d6b3b7c>@@$$QEAV<lambda_f7424dd8d45958661754dc4f2697e9c3>@@@Z@4HA 000000014001c904     libucrt:mbctype.obj
 0002:00008904       $unwind$?fin$0@?0???$?RV<lambda_fb3a7dec4e47f37f22dae91bb15c9095>@@AEAV<lambda_698284760c8add0bfb0756c19673e34b>@@V<lambda_dfb8eca1e75fef3034a8fb18dd509707>@@@?$__crt_seh_guarded_call@X@@QEAAX$$QEAV<lambda_fb3a7dec4e47f37f22dae91bb15c9095>@@AEAV<lambda_698284760c8add0bfb0756c19673e34b>@@$$QEAV<lambda_dfb8eca1e75fef3034a8fb18dd509707>@@@Z@4HA 000000014001c904     libucrt:per_thread_data.obj
 0002:00008904       $unwind$common_flush_all$fin$1 000000014001c904     libucrt:fflush.obj
 0002:00008904       $unwind$?fin$0@?0???$?RV<lambda_bfedae4ebbf01fab1bb6dcc6a9e276e0>@@AEAV<lambda_2fe9b910cf3cbf4a0ab98a02ba45b3ec>@@V<lambda_237c231691f317818eb88cc1d5d642d6>@@@?$__crt_seh_guarded_call@H@@QEAAH$$QEAV<lambda_bfedae4ebbf01fab1bb6dcc6a9e276e0>@@AEAV<lambda_2fe9b910cf3cbf4a0ab98a02ba45b3ec>@@$$QEAV<lambda_237c231691f317818eb88cc1d5d642d6>@@@Z@4HA 000000014001c904     libucrt:close.obj
 0002:00008904       $unwind$common_control87$filt$0 000000014001c904     libucrt:ieee.obj
 0002:00008904       $unwind$?fin$0@?0???$?RV<lambda_b8c45f8f788dd370798f47cfe8ac3a86>@@AEAV<lambda_4e60a939b0d047cfe11ddc22648dfba9>@@V<lambda_332c3edc96d0294ec56c57d38c1cdfd5>@@@?$__crt_seh_guarded_call@H@@QEAAH$$QEAV<lambda_b8c45f8f788dd370798f47cfe8ac3a86>@@AEAV<lambda_4e60a939b0d047cfe11ddc22648dfba9>@@$$QEAV<lambda_332c3edc96d0294ec56c57d38c1cdfd5>@@@Z@4HA 000000014001c904     libucrt:onexit.obj
 0002:00008904       $unwind$_IsNonwritableInCurrentImage$filt$0 000000014001c904     LIBCMT:pesect.obj
 0002:00008904       $unwind$_write$fin$0       000000014001c904     libucrt:write.obj
 0002:00008904       $unwind$__acrt_update_thread_multibyte_data$fin$0 000000014001c904     libucrt:mbctype.obj
 0002:00008904       $unwind$?filt$0@?0??common_exit@@YAXHW4_crt_exit_cleanup_mode@@W4_crt_exit_return_mode@@@Z@4HA 000000014001c904     libucrt:exit.obj
 0002:00008904       $unwind$?fin$0@?0???$?RV<lambda_46352004c1216016012b18bd6f87e700>@@AEAV<lambda_3bd07e1a1191394380780325891bf33f>@@V<lambda_334532d3f185bcaa59b5be82d7d22bff>@@@?$__crt_seh_guarded_call@X@@QEAAX$$QEAV<lambda_46352004c1216016012b18bd6f87e700>@@AEAV<lambda_3bd07e1a1191394380780325891bf33f>@@$$QEAV<lambda_334532d3f185bcaa59b5be82d7d22bff>@@@Z@4HA 000000014001c904     libucrt:per_thread_data.obj
 0002:00008904       $unwind$_ctrlfp$filt$0     000000014001c904     libucrt:fpctrl.obj
 0002:00008904       $unwind$?fin$0@?0???$?RV<lambda_c36588078e9f5dfd39652860aa6b3aaf>@@AEAV<lambda_ec61778202f4f5fc7e7711acc23c3bca>@@V<lambda_dc9d2797ccde5d239b4a0efae8ebd7db>@@@?$__crt_seh_guarded_call@P6AXH@Z@@QEAAP6AXH@Z$$QEAV<lambda_c36588078e9f5dfd39652860aa6b3aaf>@@AEAV<lambda_ec61778202f4f5fc7e7711acc23c3bca>@@$$QEAV<lambda_dc9d2797ccde5d239b4a0efae8ebd7db>@@@Z@4HA 000000014001c904     libucrt:signal.obj
 0002:00008904       $unwind$_fcloseall$fin$0   000000014001c904     libucrt:closeall.obj
 0002:00008904       $unwind$_query_new_handler$fin$0 000000014001c904     libucrt:new_handler.obj
 0002:0000890c       $unwind$_register_onexit_function 000000014001c90c     libucrt:onexit.obj
 0002:00008914       $unwind$_execute_onexit_table 000000014001c914     libucrt:onexit.obj
 0002:0000891c       $unwind$?write_string@?$string_output_adapter@D@__crt_stdio_output@@QEBAXQEBDHQEAH1@Z 000000014001c91c     libucrt:output.obj
 0002:0000891c       $unwind$??$parse_command_line@D@@YAXPEADPEAPEAD0PEA_K2@Z 000000014001c91c     libucrt:argv_parsing.obj
 0002:0000891c       $unwind$??R<lambda_4e60a939b0d047cfe11ddc22648dfba9>@@QEBAHXZ 000000014001c91c     libucrt:onexit.obj
 0002:00008938       $unwind$??$?RV<lambda_b8c45f8f788dd370798f47cfe8ac3a86>@@AEAV<lambda_4e60a939b0d047cfe11ddc22648dfba9>@@V<lambda_332c3edc96d0294ec56c57d38c1cdfd5>@@@?$__crt_seh_guarded_call@H@@QEAAH$$QEAV<lambda_b8c45f8f788dd370798f47cfe8ac3a86>@@AEAV<lambda_4e60a939b0d047cfe11ddc22648dfba9>@@$$QEAV<lambda_332c3edc96d0294ec56c57d38c1cdfd5>@@@Z 000000014001c938     libucrt:onexit.obj
 0002:0000895c       $unwind$??$?RV<lambda_e24bbb7b643b32fcea6fa61b31d4c984>@@AEAV<lambda_275893d493268fdec8709772e3fcec0e>@@V<lambda_9d71df4d7cf3f480f8d633942495c3b0>@@@?$__crt_seh_guarded_call@H@@QEAAH$$QEAV<lambda_e24bbb7b643b32fcea6fa61b31d4c984>@@AEAV<lambda_275893d493268fdec8709772e3fcec0e>@@$$QEAV<lambda_9d71df4d7cf3f480f8d633942495c3b0>@@@Z 000000014001c95c     libucrt:onexit.obj
 0002:0000898c       $unwind$terminate          000000014001c98c     libucrt:terminate.obj
 0002:000089ac       $unwind$??$parse_integer@KV?$c_string_character_source@D@__crt_strtox@@@__crt_strtox@@YAKQEAU__crt_locale_pointers@@V?$c_string_character_source@D@0@H_N@Z 000000014001c9ac     libucrt:atox.obj
 0002:000089c8       $unwind$__acrt_call_reportfault 000000014001c9c8     libucrt:invalid_parameter.obj
 0002:000089e8       $unwind$_invalid_parameter 000000014001c9e8     libucrt:invalid_parameter.obj
 0002:000089e8       $unwind$__vcrt_EventWriteTransfer 000000014001c9e8     libvcruntime:winapi_downlevel.obj
 0002:00008a00       $unwind$_tolower_l         000000014001ca00     libucrt:tolower_toupper.obj
 0002:00008a10       $unwind$strtol             000000014001ca10     libucrt:strtox.obj
 0002:00008a18       $unwind$__acrt_LCMapStringEx 000000014001ca18     libucrt:winapi_thunks.obj
 0002:00008a18       $unwind$_mbtowc_l          000000014001ca18     libucrt:mbtowc.obj
 0002:00008a30       $unwind$_wctomb_s_l        000000014001ca30     libucrt:wctomb.obj
 0002:00008a40       $unwind$wcsnlen            000000014001ca40     libucrt:strnlen.obj
 0002:00008a40       $unwind$strnlen            000000014001ca40     libucrt:strnlen.obj
 0002:00008a48       $unwind$__acrt_locale_free_lc_time_if_unreferenced 000000014001ca48     libucrt:locale_refcounting.obj
 0002:00008a48       $unwind$?destroy_fls@@YAXPEAX@Z 000000014001ca48     libucrt:per_thread_data.obj
 0002:00008a48       $unwind$__acrt_locale_free_numeric 000000014001ca48     libucrt:initnum.obj
 0002:00008a48       $unwind$_free_base         000000014001ca48     libucrt:free_base.obj
 0002:00008a50       $unwind$?construct_ptd_array@@YAXQEAU__acrt_ptd@@@Z 000000014001ca50     libucrt:per_thread_data.obj
 0002:00008a58       $unwind$?destroy_ptd_array@@YAXQEAU__acrt_ptd@@@Z 000000014001ca58     libucrt:per_thread_data.obj
 0002:00008a60       $unwind$??$?RV<lambda_72d1df2b273a38828b1ce30cbf4cdab5>@@AEAV<lambda_876a65b173b8412d3a47c70a915b0cf4>@@V<lambda_41932305e351933ebe8f8be3ed8bb5dc>@@@?$__crt_seh_guarded_call@X@@QEAAX$$QEAV<lambda_72d1df2b273a38828b1ce30cbf4cdab5>@@AEAV<lambda_876a65b173b8412d3a47c70a915b0cf4>@@$$QEAV<lambda_41932305e351933ebe8f8be3ed8bb5dc>@@@Z 000000014001ca60     libucrt:per_thread_data.obj
 0002:00008a84       $unwind$??$?RV<lambda_5e887d1dcbef67a5eb4283622ba103bf>@@AEAV<lambda_4466841279450cc726390878d4a41900>@@V<lambda_341c25c0346d94847f1f3c463c57e077>@@@?$__crt_seh_guarded_call@X@@QEAAX$$QEAV<lambda_5e887d1dcbef67a5eb4283622ba103bf>@@AEAV<lambda_4466841279450cc726390878d4a41900>@@$$QEAV<lambda_341c25c0346d94847f1f3c463c57e077>@@@Z 000000014001ca84     libucrt:per_thread_data.obj
 0002:00008aa8       $unwind$??$?RV<lambda_46352004c1216016012b18bd6f87e700>@@AEAV<lambda_3bd07e1a1191394380780325891bf33f>@@V<lambda_334532d3f185bcaa59b5be82d7d22bff>@@@?$__crt_seh_guarded_call@X@@QEAAX$$QEAV<lambda_46352004c1216016012b18bd6f87e700>@@AEAV<lambda_3bd07e1a1191394380780325891bf33f>@@$$QEAV<lambda_334532d3f185bcaa59b5be82d7d22bff>@@@Z 000000014001caa8     libucrt:per_thread_data.obj
 0002:00008acc       $unwind$??$?RV<lambda_fb3a7dec4e47f37f22dae91bb15c9095>@@AEAV<lambda_698284760c8add0bfb0756c19673e34b>@@V<lambda_dfb8eca1e75fef3034a8fb18dd509707>@@@?$__crt_seh_guarded_call@X@@QEAAX$$QEAV<lambda_fb3a7dec4e47f37f22dae91bb15c9095>@@AEAV<lambda_698284760c8add0bfb0756c19673e34b>@@$$QEAV<lambda_dfb8eca1e75fef3034a8fb18dd509707>@@@Z 000000014001cacc     libucrt:per_thread_data.obj
 0002:00008af0       $unwind$__acrt_fp_format   000000014001caf0     libucrt:cvt.obj
 0002:00008b0c       $unwind$?fp_format_nan_or_infinity@@YAHW4__acrt_fp_class@@_NPEAD_K1@Z 000000014001cb0c     libucrt:cvt.obj
 0002:00008b20       $unwind$?fp_format_e_internal@@YAHQEAD_KH_NIQEAU_strflt@@2QEAU__crt_locale_pointers@@@Z 000000014001cb20     libucrt:cvt.obj
 0002:00008b38       $unwind$?fp_format_e@@YAHQEBNQEAD_K12H_NIQEAU__crt_locale_pointers@@@Z 000000014001cb38     libucrt:cvt.obj
 0002:00008b4c       $unwind$?fp_format_a@@YAHQEBNPEAD_KQEAD2H_NIQEAU__crt_locale_pointers@@@Z 000000014001cb4c     libucrt:cvt.obj
 0002:00008b68       $unwind$?fp_format_g@@YAHQEBNQEAD_K12H_NIQEAU__crt_locale_pointers@@@Z 000000014001cb68     libucrt:cvt.obj
 0002:00008b7c       $unwind$__acrt_initialize_lowio 000000014001cb7c     libucrt:ioinit.obj
 0002:00008b9c       $unwind$?initialize_inherited_file_handles_nolock@@YAXXZ 000000014001cb9c     libucrt:ioinit.obj
 0002:00008bb8       $unwind$?initialize_stdio_handles_nolock@@YAXXZ 000000014001cbb8     libucrt:ioinit.obj
 0002:00008bb8       $unwind$_free_osfhnd       000000014001cbb8     libucrt:osfinfo.obj
 0002:00008bcc       $unwind$??$common_expand_argv_wildcards@D@@YAHQEAPEADQEAPEAPEAD@Z 000000014001cbcc     libucrt:argv_wildcards.obj
 0002:00008be4       $unwind$??$copy_and_add_argument_to_buffer@D@@YAHQEBD0_KAEAV?$argument_list@D@?A0x7b96f60e@@@Z 000000014001cbe4     libucrt:argv_wildcards.obj
 0002:00008c00       $unwind$??$expand_argument_wildcards@D@@YAHQEAD0AEAV?$argument_list@D@?A0x7b96f60e@@@Z 000000014001cc00     libucrt:argv_wildcards.obj
 0002:00008c20       $unwind$__acrt_update_thread_multibyte_data 000000014001cc20     libucrt:mbctype.obj
 0002:00008c44       $unwind$_setmbcp_nolock    000000014001cc44     libucrt:mbctype.obj
 0002:00008c64       $unwind$isdigit            000000014001cc64     libucrt:_ctype.obj
 0002:00008c64       $unwind$?_TlgWrite@__vcrt_trace_logging_provider@@YAJPEBU_TlgProvider_t@1@PEFBXPEBU_GUID@@2IPEAU_EVENT_DATA_DESCRIPTOR@@@Z 000000014001cc64     libvcruntime:telemetry.obj
 0002:00008c64       $unwind$_isleadbyte_l      000000014001cc64     libucrt:_wctype.obj
 0002:00008c64       $unwind$?getSystemCP@@YAHH@Z 000000014001cc64     libucrt:mbctype.obj
 0002:00008c6c       $unwind$?setSBUpLow@@YAXPEAU__crt_multibyte_data@@@Z 000000014001cc6c     libucrt:mbctype.obj
 0002:00008c88       $unwind$?setmbcp_internal@@YAHH_N@Z 000000014001cc88     libucrt:mbctype.obj
 0002:00008c98       $unwind$??$?RV<lambda_99476a1ad63dd22509b5d3e65b0ffc95>@@AEAV<lambda_ad1ced32f4ac17aa236e5ef05d6b3b7c>@@V<lambda_f7424dd8d45958661754dc4f2697e9c3>@@@?$__crt_seh_guarded_call@X@@QEAAX$$QEAV<lambda_99476a1ad63dd22509b5d3e65b0ffc95>@@AEAV<lambda_ad1ced32f4ac17aa236e5ef05d6b3b7c>@@$$QEAV<lambda_f7424dd8d45958661754dc4f2697e9c3>@@@Z 000000014001cc98     libucrt:mbctype.obj
 0002:00008cbc       $unwind$?x_ismbbtype_l@@YAHPEAU__crt_locale_pointers@@IHH@Z 000000014001ccbc     libucrt:ismbbyte.obj
 0002:00008ccc       $unwind$__dcrt_get_narrow_environment_from_os 000000014001cccc     libucrt:get_environment_from_os.obj
 0002:00008ccc       $unwind$?fp_format_f_internal@@YAHQEAD_KHQEAU_strflt@@_NQEAU__crt_locale_pointers@@@Z 000000014001cccc     libucrt:cvt.obj
 0002:00008ce4       $unwind$?replace_current_thread_locale_nolock@@YAXQEAU__acrt_ptd@@QEAU__crt_locale_data@@@Z 000000014001cce4     libucrt:per_thread_data.obj
 0002:00008ce4       $unwind$_realloc_base      000000014001cce4     libucrt:realloc_base.obj
 0002:00008ce4       $unwind$_callnewh          000000014001cce4     libucrt:new_handler.obj
 0002:00008ce4       $unwind$__acrt_invoke_user_matherr 000000014001cce4     libucrt:matherr.obj
 0002:00008ce4       $unwind$?internal_isupper_l@@YA_NHQEAU__crt_locale_pointers@@@Z 000000014001cce4     libucrt:tolower_toupper.obj
 0002:00008ce4       $unwind$__acrt_getptd      000000014001cce4     libucrt:per_thread_data.obj
 0002:00008ce4       $unwind$?type_case_c_tchar@?$output_processor@DV?$string_output_adapter@D@__crt_stdio_output@@V?$standard_base@DV?$string_output_adapter@D@__crt_stdio_output@@@2@@__crt_stdio_output@@AEAA_ND@Z 000000014001cce4     libucrt:output.obj
 0002:00008ce4       $unwind$__vcrt_FlsAlloc    000000014001cce4     libvcruntime:winapi_downlevel.obj
 0002:00008ce4       $unwind$__acrt_FlsAlloc    000000014001cce4     libucrt:winapi_thunks.obj
 0002:00008ce4       $unwind$?type_case_c_tchar@?$output_processor@DV?$string_output_adapter@D@__crt_stdio_output@@V?$format_validation_base@DV?$string_output_adapter@D@__crt_stdio_output@@@2@@__crt_stdio_output@@AEAA_ND@Z 000000014001cce4     libucrt:output.obj
 0002:00008ce4       $unwind$_updatetlocinfoEx_nolock 000000014001cce4     libucrt:locale_refcounting.obj
 0002:00008ce4       $unwind$__vcrt_EventUnregister 000000014001cce4     libvcruntime:winapi_downlevel.obj
 0002:00008ce4       $unwind$strncpy_s          000000014001cce4     libucrt:strncpy_s.obj
 0002:00008ce4       $unwind$??0_LocaleUpdate@@QEAA@QEAU__crt_locale_pointers@@@Z 000000014001cce4     libucrt:output.obj
 0002:00008ce4       $unwind$_fclose_nolock     000000014001cce4     libucrt:fclose.obj
 0002:00008ce4       $unwind$__acrt_FlsGetValue 000000014001cce4     libucrt:winapi_thunks.obj
 0002:00008ce4       $unwind$?try_cor_exit_process@@YAXI@Z 000000014001cce4     libucrt:exit.obj
 0002:00008ce4       $unwind$__vcrt_FlsFree     000000014001cce4     libvcruntime:winapi_downlevel.obj
 0002:00008ce4       $unwind$??$common_initialize_environment_nolock@D@@YAHXZ 000000014001cce4     libucrt:environment_initialization.obj
 0002:00008ce4       $unwind$?force_decimal_point@__crt_stdio_output@@YAXPEADQEAU__crt_locale_pointers@@@Z 000000014001cce4     libucrt:output.obj
 0002:00008ce4       $unwind$__acrt_FlsFree     000000014001cce4     libucrt:winapi_thunks.obj
 0002:00008ce4       $unwind$_get_narrow_winmain_command_line 000000014001cce4     libucrt:argv_winmain.obj
 0002:00008ce4       $unwind$_close_nolock      000000014001cce4     libucrt:close.obj
 0002:00008ce4       $unwind$__acrt_uninitialize_lowio 000000014001cce4     libucrt:ioinit.obj
 0002:00008ce4       $unwind$__acrt_errno_map_os_error 000000014001cce4     libucrt:errno.obj
 0002:00008cf0       $unwind$__vcrt_initialize_winapi_thunks 000000014001ccf0     libvcruntime:winapi_downlevel.obj
 0002:00008cf0       $unwind$__acrt_initialize_winapi_thunks 000000014001ccf0     libucrt:winapi_thunks.obj
 0002:00008cf8       $unwind$__acrt_is_packaged_app 000000014001ccf8     libucrt:winapi_thunks.obj
 0002:00008d04       $unwind$__acrt_lowio_destroy_handle_array 000000014001cd04     libucrt:osfinfo.obj
 0002:00008d14       $unwind$__acrt_lowio_ensure_fh_exists 000000014001cd14     libucrt:osfinfo.obj
 0002:00008d40       $unwind$__acrt_locale_free_monetary 000000014001cd40     libucrt:initmon.obj
 0002:00008d48       $unwind$__acrt_locale_free_time 000000014001cd48     libucrt:inittime.obj
 0002:00008d58       $unwind$__acrt_GetStringTypeA 000000014001cd58     libucrt:getstringtypea.obj
 0002:00008d80       $unwind$__acrt_update_thread_locale_data 000000014001cd80     libucrt:locale_refcounting.obj
 0002:00008da4       $unwind$_query_new_handler 000000014001cda4     libucrt:new_handler.obj
 0002:00008dc4       $unwind$__acrt_get_sigabrt_handler 000000014001cdc4     libucrt:signal.obj
 0002:00008dcc       $unwind$raise              000000014001cdcc     libucrt:signal.obj
 0002:00008df8       $unwind$??$?RV<lambda_c36588078e9f5dfd39652860aa6b3aaf>@@AEAV<lambda_ec61778202f4f5fc7e7711acc23c3bca>@@V<lambda_dc9d2797ccde5d239b4a0efae8ebd7db>@@@?$__crt_seh_guarded_call@P6AXH@Z@@QEAAP6AXH@Z$$QEAV<lambda_c36588078e9f5dfd39652860aa6b3aaf>@@AEAV<lambda_ec61778202f4f5fc7e7711acc23c3bca>@@$$QEAV<lambda_dc9d2797ccde5d239b4a0efae8ebd7db>@@@Z 000000014001cdf8     libucrt:signal.obj
 0002:00008e1c       $unwind$_isctype_l         000000014001ce1c     libucrt:isctype.obj
 0002:00008e38       $unwind$__acrt_LCMapStringA 000000014001ce38     libucrt:lcmapstringa.obj
 0002:00008e48       $unwind$?__acrt_LCMapStringA_stat@@YAHPEAU__crt_locale_pointers@@PEB_WKPEBDHPEADHHH@Z 000000014001ce48     libucrt:lcmapstringa.obj
 0002:00008e70       $unwind$?type_case_s@?$output_processor@DV?$string_output_adapter@D@__crt_stdio_output@@V?$standard_base@DV?$string_output_adapter@D@__crt_stdio_output@@@2@@__crt_stdio_output@@AEAA_NXZ 000000014001ce70     libucrt:output.obj
 0002:00008e70       $unwind$__acrt_stdio_flush_nolock 000000014001ce70     libucrt:fflush.obj
 0002:00008e70       $unwind$?type_case_Z@?$output_processor@DV?$string_output_adapter@D@__crt_stdio_output@@V?$standard_base@DV?$string_output_adapter@D@__crt_stdio_output@@@2@@__crt_stdio_output@@AEAA_NXZ 000000014001ce70     libucrt:output.obj
 0002:00008e70       $unwind$_RTC_Initialize    000000014001ce70     LIBCMT:_initsect_.obj
 0002:00008e70       $unwind$__acrt_execute_uninitializers 000000014001ce70     libucrt:shared_initialization.obj
 0002:00008e70       $unwind$??R<lambda_ad1ced32f4ac17aa236e5ef05d6b3b7c>@@QEBAXXZ 000000014001ce70     libucrt:mbctype.obj
 0002:00008e70       $unwind$?type_case_n@?$output_processor@DV?$string_output_adapter@D@__crt_stdio_output@@V?$standard_base@DV?$string_output_adapter@D@__crt_stdio_output@@@2@@__crt_stdio_output@@AEAA_NXZ 000000014001ce70     libucrt:output.obj
 0002:00008e70       $unwind$?TraceLoggingRegister@__vcrt_trace_logging_provider@@YAJPEBU_TlgProvider_t@1@PEBU_GUID@@P6AX1KE_K2PEAU_EVENT_FILTER_DESCRIPTOR@@PEAX@Z4@Z 000000014001ce70     libvcruntime:telemetry.obj
 0002:00008e70       $unwind$_RTC_Terminate     000000014001ce70     LIBCMT:_initsect_.obj
 0002:00008e70       $unwind$?free_crt_array_internal@@YAXQEAPEBX_K@Z 000000014001ce70     libucrt:inittime.obj
 0002:00008e70       $unwind$?type_case_n@?$output_processor@DV?$string_output_adapter@D@__crt_stdio_output@@V?$format_validation_base@DV?$string_output_adapter@D@__crt_stdio_output@@@2@@__crt_stdio_output@@AEAA_NXZ 000000014001ce70     libucrt:output.obj
 0002:00008e70       $unwind$__acrt_LocaleNameToLCID 000000014001ce70     libucrt:winapi_thunks.obj
 0002:00008e70       $unwind$__vcrt_FlsSetValue 000000014001ce70     libvcruntime:winapi_downlevel.obj
 0002:00008e70       $unwind$?type_case_Z@?$output_processor@DV?$string_output_adapter@D@__crt_stdio_output@@V?$format_validation_base@DV?$string_output_adapter@D@__crt_stdio_output@@@2@@__crt_stdio_output@@AEAA_NXZ 000000014001ce70     libucrt:output.obj
 0002:00008e70       $unwind$__acrt_getptd_noexit 000000014001ce70     libucrt:per_thread_data.obj
 0002:00008e70       $unwind$??$common_lseek_nolock@_J@@YA_JH_JH@Z 000000014001ce70     libucrt:lseek.obj
 0002:00008e70       $unwind$?type_case_s@?$output_processor@DV?$string_output_adapter@D@__crt_stdio_output@@V?$format_validation_base@DV?$string_output_adapter@D@__crt_stdio_output@@@2@@__crt_stdio_output@@AEAA_NXZ 000000014001ce70     libucrt:output.obj
 0002:00008e70       $unwind$__acrt_FlsSetValue 000000014001ce70     libucrt:winapi_thunks.obj
 0002:00008e70       $unwind$_initterm_e        000000014001ce70     libucrt:initterm.obj
 0002:00008e70       $unwind$_exception_enabled 000000014001ce70     libucrt:libm_error.obj
 0002:00008e70       $unwind$memcpy_s           000000014001ce70     libucrt:cfout.obj
 0002:00008e80       $unwind$__acrt_fltout      000000014001ce80     libucrt:cfout.obj
 0002:00008ea0       $unwind$?divide@__crt_strtox@@YA_KAEAUbig_integer@1@AEBU21@@Z 000000014001cea0     libucrt:cfout.obj
 0002:00008ec0       $chain$5$?divide@__crt_strtox@@YA_KAEAUbig_integer@1@AEBU21@@Z 000000014001cec0     libucrt:cfout.obj
 0002:00008ed4       $chain$6$?divide@__crt_strtox@@YA_KAEAUbig_integer@1@AEBU21@@Z 000000014001ced4     libucrt:cfout.obj
 0002:00008ee4       $unwind$_fcloseall         000000014001cee4     libucrt:closeall.obj
 0002:00008f08       $unwind$common_flush_all   000000014001cf08     libucrt:fflush.obj
 0002:00008f44       $unwind$qsort              000000014001cf44     libucrt:qsort.obj
 0002:00008f5c       $chain$4$qsort             000000014001cf5c     libucrt:qsort.obj
 0002:00008f80       $chain$5$qsort             000000014001cf80     libucrt:qsort.obj
 0002:00008f90       $unwind$?shortsort@@YAXPEAD0_KP6AHPEBX2@Z@Z 000000014001cf90     libucrt:qsort.obj
 0002:00008fa0       $chain$2$?shortsort@@YAXPEAD0_KP6AHPEBX2@Z@Z 000000014001cfa0     libucrt:qsort.obj
 0002:00008fbc       $chain$3$?shortsort@@YAXPEAD0_KP6AHPEBX2@Z@Z 000000014001cfbc     libucrt:qsort.obj
 0002:00008fcc       $unwind$strpbrk            000000014001cfcc     libucrt:strpbrk.obj
 0002:00008fdc       $unwind$_mbsdec_l          000000014001cfdc     libucrt:mbsdec.obj
 0002:00008fe8       $unwind$_statfp            000000014001cfe8     libucrt:fpctrl.obj
 0002:00008fe8       $unwind$__acrt_release_locale_ref 000000014001cfe8     libucrt:locale_refcounting.obj
 0002:00008fe8       $unwind$_register_thread_local_exe_atexit_callback 000000014001cfe8     libucrt:exit.obj
 0002:00008fe8       $unwind$__report_rangecheckfailure 000000014001cfe8     LIBCMT:gs_report.obj
 0002:00008fe8       $unwind$_set_fmode         000000014001cfe8     libucrt:setmode.obj
 0002:00008fe8       $unwind$__acrt_uninitialize_ptd 000000014001cfe8     libucrt:per_thread_data.obj
 0002:00008fe8       $unwind$_isatty            000000014001cfe8     libucrt:isatty.obj
 0002:00008fe8       $unwind$WinMainCRTStartup  000000014001cfe8     LIBCMT:exe_winmain.obj
 0002:00008fe8       $unwind$__GSHandlerCheck   000000014001cfe8     LIBCMT:_gshandler_.obj
 0002:00008fe8       $unwind$__acrt_initialize_heap 000000014001cfe8     libucrt:heap_handle.obj
 0002:00008fe8       $unwind$atexit             000000014001cfe8     LIBCMT:utility.obj
 0002:00008fe8       $unwind$__scrt_unhandled_exception_filter 000000014001cfe8     LIBCMT:utility_desktop.obj
 0002:00008fe8       $unwind$__vcrt_uninitialize_telemetry_provider 000000014001cfe8     libvcruntime:telemetry.obj
 0002:00008fe8       $unwind$?state_case_normal_tchar@?$output_processor@DV?$string_output_adapter@D@__crt_stdio_output@@V?$format_validation_base@DV?$string_output_adapter@D@__crt_stdio_output@@@2@@__crt_stdio_output@@AEAA_ND@Z 000000014001cfe8     libucrt:output.obj
 0002:00008fe8       $unwind$uninitialize_environment 000000014001cfe8     libucrt:initialization.obj
 0002:00008fe8       $unwind$__acrt_initialize_ptd 000000014001cfe8     libucrt:per_thread_data.obj
 0002:00008fe8       $unwind$_getfpstatusword   000000014001cfe8     libucrt:_fenvutils.obj
 0002:00008fe8       $unwind$_fileno            000000014001cfe8     libucrt:fileno.obj
 0002:00008fe8       $unwind$__pctype_func      000000014001cfe8     libucrt:ctype.obj
 0002:00008fe8       $unwind$__scrt_initialize_default_local_stdio_options 000000014001cfe8     LIBCMT:default_local_stdio_options.obj
 0002:00008fe8       $unwind$?initialize_multibyte@@YAHXZ 000000014001cfe8     libucrt:multibyte_initializer.obj
 0002:00008fe8       $unwind$_errno             000000014001cfe8     libucrt:errno.obj
 0002:00008fe8       $unwind$_msize             000000014001cfe8     libucrt:msize.obj
 0002:00008fe8       $unwind$initialize_c       000000014001cfe8     libucrt:initialization.obj
 0002:00008fe8       $unwind$__doserrno         000000014001cfe8     libucrt:errno.obj
 0002:00008fe8       $unwind$__vcrt_initialize  000000014001cfe8     libvcruntime:initialization.obj
 0002:00008fe8       $unwind$_get_osfhandle     000000014001cfe8     libucrt:osfinfo.obj
 0002:00008fe8       $unwind$__scrt_acquire_startup_lock 000000014001cfe8     LIBCMT:utility.obj
 0002:00008fe8       $unwind$__vcrt_freefls     000000014001cfe8     libvcruntime:per_thread_data.obj
 0002:00008fe8       $unwind$?state_case_normal_tchar@?$output_processor@DV?$string_output_adapter@D@__crt_stdio_output@@V?$standard_base@DV?$string_output_adapter@D@__crt_stdio_output@@@2@@__crt_stdio_output@@AEAA_ND@Z 000000014001cfe8     libucrt:output.obj
 0002:00008fe8       $unwind$__vcrt_uninitialize_ptd 000000014001cfe8     libvcruntime:per_thread_data.obj
 0002:00008fe8       $unwind$_getfpcontrolword  000000014001cfe8     libucrt:_fenvutils.obj
 0002:00008fe8       $unwind$?pre_cpp_initialization@@YAXXZ 000000014001cfe8     LIBCMT:exe_winmain.obj
 0002:00008fe8       $unwind$?state_case_size@?$output_processor@DV?$string_output_adapter@D@__crt_stdio_output@@V?$standard_base@DV?$string_output_adapter@D@__crt_stdio_output@@@2@@__crt_stdio_output@@AEAA_NXZ 000000014001cfe8     libucrt:output.obj
 0002:00008fe8       $unwind$__acrt_DownlevelLocaleNameToLCID 000000014001cfe8     libucrt:lcidtoname_downlevel.obj
 0002:00008fe8       $unwind$__acrt_initialize_command_line 000000014001cfe8     libucrt:argv_data.obj
 0002:00008fe8       $unwind$_invoke_watson     000000014001cfe8     libucrt:invalid_parameter.obj
 0002:00008fe8       $unwind$abort              000000014001cfe8     libucrt:abort.obj
 0002:00008fe8       $unwind$__vcrt_initialize_ptd 000000014001cfe8     libvcruntime:per_thread_data.obj
 0002:00008fe8       $unwind$tolower            000000014001cfe8     libucrt:tolower_toupper.obj
 0002:00008fe8       $unwind$__dcrt_terminate_console_output 000000014001cfe8     libucrt:initcon.obj
 0002:00008fe8       $unwind$_set_errno_from_matherr 000000014001cfe8     libucrt:fpexcept.obj
 0002:00008fe8       $unwind$__scrt_is_managed_app 000000014001cfe8     LIBCMT:utility_desktop.obj
 0002:00008fe8       $unwind$__dcrt_uninitialize_environments_nolock 000000014001cfe8     libucrt:environment_initialization.obj
 0002:00008fe8       $unwind$??$uninitialize_environment_internal@D@@YAXAEAPEAPEAD@Z 000000014001cfe8     libucrt:environment_initialization.obj
 0002:00008fe8       $unwind$?post_pgo_initialization@@YAHXZ 000000014001cfe8     LIBCMT:exe_winmain.obj
 0002:00008fe8       $unwind$??$uninitialize_environment_internal@_W@@YAXAEAPEAPEA_W@Z 000000014001cfe8     libucrt:environment_initialization.obj
 0002:00008fe8       $unwind$_set_new_mode      000000014001cfe8     libucrt:new_mode.obj
 0002:00008fe8       $unwind$__acrt_initialize_multibyte 000000014001cfe8     libucrt:mbctype.obj
 0002:00008fe8       $unwind$?state_case_size@?$output_processor@DV?$string_output_adapter@D@__crt_stdio_output@@V?$format_validation_base@DV?$string_output_adapter@D@__crt_stdio_output@@@2@@__crt_stdio_output@@AEAA_NXZ 000000014001cfe8     libucrt:output.obj
 0002:00008ff0       $unwind$?GetTableIndexFromLocaleName@@YAHPEB_W@Z 000000014001cff0     libucrt:lcidtoname_downlevel.obj
 0002:00009008       $xdatasym                  000000014001d008     libucrt:log10.obj
 0002:00009014       $unwind$_write             000000014001d014     libucrt:write.obj
 0002:00009044       $unwind$_write_nolock      000000014001d044     libucrt:write.obj
 0002:0000905c       $unwind$?write_double_translated_ansi_nolock@@YA?AUwrite_result@?A0x4392dfaa@@HQEBDI@Z 000000014001d05c     libucrt:write.obj
 0002:0000907c       $unwind$?write_text_ansi_nolock@@YA?AUwrite_result@?A0x4392dfaa@@HQEBDI@Z 000000014001d07c     libucrt:write.obj
 0002:0000907c       $unwind$?write_text_utf16le_nolock@@YA?AUwrite_result@?A0x4392dfaa@@HQEBDI@Z 000000014001d07c     libucrt:write.obj
 0002:0000909c       $unwind$?write_text_utf8_nolock@@YA?AUwrite_result@?A0x4392dfaa@@HQEBDI@Z 000000014001d09c     libucrt:write.obj
 0002:000090c0       $unwind$fclose             000000014001d0c0     libucrt:fclose.obj
 0002:000090e4       $unwind$_close             000000014001d0e4     libucrt:close.obj
 0002:000090e4       $unwind$_commit            000000014001d0e4     libucrt:commit.obj
 0002:000090ec       $unwind$??$?RV<lambda_b521505b218e5242e90febf6bfebc422>@@AEAV<lambda_6978c1fb23f02e42e1d9e99668cc68aa>@@V<lambda_314360699dd331753a4119843814e9a7>@@@?$__crt_seh_guarded_call@H@@QEAAH$$QEAV<lambda_b521505b218e5242e90febf6bfebc422>@@AEAV<lambda_6978c1fb23f02e42e1d9e99668cc68aa>@@$$QEAV<lambda_314360699dd331753a4119843814e9a7>@@@Z 000000014001d0ec     libucrt:commit.obj
 0002:00009110       $unwind$common_control87   000000014001d110     libucrt:ieee.obj
 0002:00009140       $unwind$_call_matherr      000000014001d140     libucrt:libm_error.obj
 0002:00009148       $unwind$_handle_error      000000014001d148     libucrt:libm_error.obj
 0002:00009168       $unwind$__acrt_initialize_fma3 000000014001d168     libucrt:fma3_available.obj
 0002:00009170       $unwind$_log_special_common 000000014001d170     libucrt:log_special.obj
 0002:0000917c       $unwind$_putwch_nolock     000000014001d17c     libucrt:putwch.obj
 0002:0000917c       $unwind$__report_gsfailure 000000014001d17c     LIBCMT:gs_report.obj
 0002:00009184       $unwind$??$?RV<lambda_bfedae4ebbf01fab1bb6dcc6a9e276e0>@@AEAV<lambda_2fe9b910cf3cbf4a0ab98a02ba45b3ec>@@V<lambda_237c231691f317818eb88cc1d5d642d6>@@@?$__crt_seh_guarded_call@H@@QEAAH$$QEAV<lambda_bfedae4ebbf01fab1bb6dcc6a9e276e0>@@AEAV<lambda_2fe9b910cf3cbf4a0ab98a02ba45b3ec>@@$$QEAV<lambda_237c231691f317818eb88cc1d5d642d6>@@@Z 000000014001d184     libucrt:close.obj
 0002:000091a8       $xdatasym                  000000014001d1a8     libucrt:fpsr.obj
 0002:000091b0       $unwind$_raise_exc         000000014001d1b0     libucrt:fpexcept.obj
 0002:000091b0       $unwind$__dcrt_lowio_initialize_console_output 000000014001d1b0     libucrt:initcon.obj
 0002:000091b8       $unwind$_raise_exc_ex      000000014001d1b8     libucrt:fpexcept.obj
 0002:000091cc       $unwind$_ctrlfp            000000014001d1cc     libucrt:fpctrl.obj
 0002:000091f4       $unwind$_IsNonwritableInCurrentImage 000000014001d1f4     LIBCMT:pesect.obj
 0002:00009218       $xdatasym                  000000014001d218     libvcruntime:memcpy.obj
 0002:00009220       $xdatasym                  000000014001d220     libvcruntime:memcmp.obj
 0002:00009224       $unwind$strrchr            000000014001d224     libvcruntime:strrchr.obj
 0002:00009648       .idata$6                   000000014001d648     user32:USER32.dll
 0002:00009664       .idata$6                   000000014001d664     gdi32:GDI32.dll
 0002:00009680       .idata$6                   000000014001d680     winmm:WINMM.dll
 0002:00009918       .idata$6                   000000014001d918     kernel32:KERNEL32.dll
 0002:00009c40       .idata$6                   000000014001dc40     advapi32:ADVAPI32.dll
 0003:00000000       ?XInputGetState_@@3P6AKKPEAU_XINPUT_STATE@@@ZEA 000000014001e000     win32_handmade.obj
 0003:00000008       ?XInputSetState_@@3P6AKKPEAU_XINPUT_VIBRATION@@@ZEA 000000014001e008     win32_handmade.obj
 0003:00000040       ?_Tlg_Microsoft_CRTProviderProv@@3U_TlgProvider_t@__vcrt_trace_logging_provider@@A 000000014001e040     libvcruntime:telemetry.obj
 0003:00000090       ?__vcrt_flsindex@@3KA      000000014001e090     libvcruntime:per_thread_data.obj
 0003:00000098       errno_no_memory            000000014001e098     libucrt:errno.obj
 0003:0000009c       doserrno_no_memory         000000014001e09c     libucrt:errno.obj
 0003:000000a0       __acrt_flsindex            000000014001e0a0     libucrt:per_thread_data.obj
 0003:00000560       __rgctypeflag              000000014001e560     libucrt:mbctype.obj
 0003:00000570       __rgcode_page_info         000000014001e570     libucrt:mbctype.obj
 0003:00000920       ?dazSupported@?1??common_control87@@9@9 000000014001e920     libucrt:ieee.obj
 0003:00000930       ?dazSupported@?1??_ctrlfp@@9@9 000000014001e930     libucrt:fpctrl.obj
 0003:00000950       ?GlobalRunning@@3HA        000000014001e950     win32_handmade.obj
 0003:00000954       ?GlobalPause@@3HA          000000014001e954     win32_handmade.obj
 0003:00000958       ?GlobalSecondaryBuffer@@3PEAUIDirectSoundBuffer@@EA 000000014001e958     win32_handmade.obj
 0003:00000960       ?GlobalBackbuffer@@3Uwin32_offscreen_buffer@@A 000000014001e960     win32_handmade.obj
 0003:000009a8       ?GlobalPerfCountFrequency@@3_JA 000000014001e9a8     win32_handmade.obj
 0003:000009b0       GS_ExceptionRecord         000000014001e9b0     LIBCMT:gs_report.obj
 0003:00000a50       GS_ContextRecord           000000014001ea50     LIBCMT:gs_report.obj
 0003:00000f30       ?module_local_atexit_table@@3U_onexit_table_t@@A 000000014001ef30     LIBCMT:utility.obj
 0003:00000f48       ?module_local_at_quick_exit_table@@3U_onexit_table_t@@A 000000014001ef48     LIBCMT:utility.obj
 0003:00000f60       ?is_initialized_as_dll@@3_NA 000000014001ef60     LIBCMT:utility.obj
 0003:00000f90       ?module_handles@@3PAPEAUHINSTANCE__@@A 000000014001ef90     libvcruntime:winapi_downlevel.obj
 0003:00000fb0       ?encoded_function_pointers@@3PAPEAXA 000000014001efb0     libvcruntime:winapi_downlevel.obj
 0003:00001000       ?__vcrt_startup_thread_ptd@@3U__vcrt_ptd@@A 000000014001f000     libvcruntime:per_thread_data.obj
 0003:00001078       __vcrt_lock_table          000000014001f078     libvcruntime:locks.obj
 0003:000010a0       __vcrt_locks_initialized   000000014001f0a0     libvcruntime:locks.obj
 0003:000010f8       ?heap@@3V_HeapManager@@A   000000014001f0f8     libvcruntime:undname.obj
 0003:00001120       __acrt_app_type            000000014001f120     libucrt:report_runtime_error.obj
 0003:00001128       user_matherr               000000014001f128     libucrt:matherr.obj
 0003:00001130       ?program_name@?5???$common_configure_argv@D@@YAHW4_crt_argv_mode@@@Z@4PADA 000000014001f130     libucrt:argv_parsing.obj
 0003:00001258       ?empty_string@?1???$common_wincmdln@D@@YAPEADXZ@4PADA 000000014001f258     libucrt:argv_winmain.obj
 0003:0000125c       c_termination_complete     000000014001f25c     libucrt:exit.obj
 0003:00001260       thread_local_exit_callback_func 000000014001f260     libucrt:exit.obj
 0003:00001268       ?c_exit_complete@?5??common_exit@@YAXHW4_crt_exit_cleanup_mode@@W4_crt_exit_return_mode@@@Z@4_NA 000000014001f268     libucrt:exit.obj
 0003:00001270       __acrt_global_new_mode     000000014001f270     libucrt:new_mode.obj
 0003:000012a8       __acrt_invalid_parameter_handler 000000014001f2a8     libucrt:invalid_parameter.obj
 0003:000012c0       enable_percent_n           000000014001f2c0     libucrt:printf_count_output.obj
 0003:000016fc       fSystemSet                 000000014001f6fc     libucrt:mbctype.obj
 0003:00001708       ?initialized@?1??__acrt_initialize_multibyte@@9@4_NA 000000014001f708     libucrt:mbctype.obj
 0003:00001740       __acrt_lock_table          000000014001f740     libucrt:locks.obj
 0003:00001948       __acrt_locks_initialized   000000014001f948     libucrt:locks.obj
 0003:00001950       module_handles             000000014001f950     libucrt:winapi_thunks.obj
 0003:000019f0       encoded_function_pointers  000000014001f9f0     libucrt:winapi_thunks.obj
 0003:00001af0       ?state_cache@?1??__acrt_is_packaged_app@@9@4JA 000000014001faf0     libucrt:winapi_thunks.obj
 0003:00001b08       __acrt_new_handler         000000014001fb08     libucrt:new_handler.obj
 0003:00001b10       ctrlc_action               000000014001fb10     libucrt:signal.obj
 0003:00001b18       ctrlbreak_action           000000014001fb18     libucrt:signal.obj
 0003:00001b20       abort_action               000000014001fb20     libucrt:signal.obj
 0003:00001b28       term_action                000000014001fb28     libucrt:signal.obj
 0004:00000000       $pdata$?TraceLoggingRegister@__vcrt_trace_logging_provider@@YAJPEBU_TlgProvider_t@1@PEBU_GUID@@P6AX1KE_K2PEAU_EVENT_FILTER_DESCRIPTOR@@PEAX@Z4@Z 0000000140020000     libvcruntime:telemetry.obj
 0004:0000000c       $pdata$?_TlgEnableCallback@__vcrt_trace_logging_provider@@YAXPEBU_GUID@@KE_K1PEAU_EVENT_FILTER_DESCRIPTOR@@PEAX@Z 000000014002000c     libvcruntime:telemetry.obj
 0004:00000018       $pdata$?_TlgWrite@__vcrt_trace_logging_provider@@YAJPEBU_TlgProvider_t@1@PEFBXPEBU_GUID@@2IPEAU_EVENT_DATA_DESCRIPTOR@@@Z 0000000140020018     libvcruntime:telemetry.obj
 0004:00000024       $pdata$WinMain             0000000140020024     win32_handmade.obj
 0004:00000030       $pdata$?DEBUGPlatformFreeFileMemory@@YAXPEAX@Z 0000000140020030     win32_handmade.obj
 0004:0000003c       $pdata$?DEBUGPlatformReadEntireFile@@YA?AUdebug_read_file_result@@PEAD@Z 000000014002003c     win32_handmade.obj
 0004:00000048       $pdata$?DEBUGPlatformWriteEntireFile@@YAHPEADIPEAX@Z 0000000140020048     win32_handmade.obj
 0004:00000054       $pdata$?Win32LoadGameCode@@YA?AUwin32_game_code@@PEAD0@Z 0000000140020054     win32_handmade.obj
 0004:00000060       $pdata$?Win32UnloadGameCode@@YAXPEAUwin32_game_code@@@Z 0000000140020060     win32_handmade.obj
 0004:0000006c       $pdata$?Wind32LoadXInput@@YAXXZ 000000014002006c     win32_handmade.obj
 0004:00000078       $pdata$?Win32InitDSound@@YAXPEAUHWND__@@HH@Z 0000000140020078     win32_handmade.obj
 0004:00000084       $pdata$?Win32GetWindowDimension@@YA?AUwin32_window_dimension@@PEAUHWND__@@@Z 0000000140020084     win32_handmade.obj
 0004:00000090       $pdata$?Win32ResizeDIBSection@@YAXPEAUwin32_offscreen_buffer@@HH@Z 0000000140020090     win32_handmade.obj
 0004:0000009c       $pdata$?Win32DisplayBufferInWindow@@YAXPEAUwin32_offscreen_buffer@@PEAUHDC__@@HH@Z 000000014002009c     win32_handmade.obj
 0004:000000a8       $pdata$?Win32MainWindowCallback@@YA_JPEAUHWND__@@I_K_J@Z 00000001400200a8     win32_handmade.obj
 0004:000000b4       $pdata$?win32ClearBuffer@@YAXPEAUwin32_sound_output@@@Z 00000001400200b4     win32_handmade.obj
 0004:000000c0       $pdata$?Win32FillSoundBuffer@@YAXPEAUwin32_sound_output@@KKPEAUgame_sound_output_buffer@@@Z 00000001400200c0     win32_handmade.obj
 0004:000000cc       $pdata$?Win32ProcessXInputDigitalButton@@YAXKPEAUgame_button_state@@0K@Z 00000001400200cc     win32_handmade.obj
 0004:000000d8       $pdata$?Win32ProcessPendingMessage@@YAXPEAUgame_controller_input@@@Z 00000001400200d8     win32_handmade.obj
 0004:000000e4       $pdata$?Win32DebugDrawVertical@@YAXPEAUwin32_offscreen_buffer@@HHHI@Z 00000001400200e4     win32_handmade.obj
 0004:000000f0       $pdata$?Win32DebugSyncDisplay@@YAXPEAUwin32_offscreen_buffer@@HPEAUwin32_debug_time_marker@@HPEAUwin32_sound_output@@M@Z 00000001400200f0     win32_handmade.obj
 0004:000000fc       $pdata$?CatStrings@@YAX_KPEAD0101@Z 00000001400200fc     win32_handmade.obj
 0004:00000108       $pdata$??$_snprintf_s@$0BAA@@@YAHAEAY0BAA@D_KPEBDZZ 0000000140020108     win32_handmade.obj
 0004:00000114       $pdata$?SafeTruncateUInt64@@YAI_K@Z 0000000140020114     win32_handmade.obj
 0004:00000120       $pdata$?Win32DrawSoundBufferMarker@@YAXPEAUwin32_offscreen_buffer@@PEAUwin32_sound_output@@MHHHKI@Z 0000000140020120     win32_handmade.obj
 0004:0000012c       $pdata$?Win32GetLastWriteTime@@YA?AU_FILETIME@@PEAD@Z 000000014002012c     win32_handmade.obj
 0004:00000138       $pdata$?Win32GetWallClock@@YA?AT_LARGE_INTEGER@@XZ 0000000140020138     win32_handmade.obj
 0004:00000144       $pdata$_vsnprintf_s        0000000140020144     win32_handmade.obj
 0004:00000150       $pdata$_vsnprintf_s_l      0000000140020150     win32_handmade.obj
 0004:0000015c       $pdata$snprintf            000000014002015c     win32_handmade.obj
 0004:00000168       $pdata$vsnprintf           0000000140020168     win32_handmade.obj
 0004:00000174       $pdata$__GSHandlerCheck    0000000140020174     LIBCMT:_gshandler_.obj
 0004:00000180       $pdata$__GSHandlerCheckCommon 0000000140020180     LIBCMT:_gshandler_.obj
 0004:000001a4       $pdata$?pre_c_initialization@@YAHXZ 00000001400201a4     LIBCMT:exe_winmain.obj
 0004:000001b0       $pdata$?post_pgo_initialization@@YAHXZ 00000001400201b0     LIBCMT:exe_winmain.obj
 0004:000001bc       $pdata$?pre_cpp_initialization@@YAXXZ 00000001400201bc     LIBCMT:exe_winmain.obj
 0004:000001c8       $pdata$?__scrt_common_main_seh@@YAHXZ 00000001400201c8     LIBCMT:exe_winmain.obj
 0004:000001d4       $pdata$WinMainCRTStartup   00000001400201d4     LIBCMT:exe_winmain.obj
 0004:000001e0       $pdata$__raise_securityfailure 00000001400201e0     LIBCMT:gs_report.obj
 0004:000001ec       $pdata$__report_gsfailure  00000001400201ec     LIBCMT:gs_report.obj
 0004:000001f8       $pdata$__report_rangecheckfailure 00000001400201f8     LIBCMT:gs_report.obj
 0004:00000204       $pdata$__report_securityfailure 0000000140020204     LIBCMT:gs_report.obj
 0004:00000210       $pdata$capture_current_context 0000000140020210     LIBCMT:gs_report.obj
 0004:0000021c       $pdata$capture_previous_context 000000014002021c     LIBCMT:gs_report.obj
 0004:00000228       $pdata$__scrt_acquire_startup_lock 0000000140020228     LIBCMT:utility.obj
 0004:00000234       $pdata$__scrt_initialize_crt 0000000140020234     LIBCMT:utility.obj
 0004:00000240       $pdata$__scrt_initialize_onexit_tables 0000000140020240     LIBCMT:utility.obj
 0004:0000024c       $pdata$__scrt_is_nonwritable_in_current_image 000000014002024c     LIBCMT:utility.obj
 0004:00000258       $pdata$__scrt_release_startup_lock 0000000140020258     LIBCMT:utility.obj
 0004:00000264       $pdata$__scrt_uninitialize_crt 0000000140020264     LIBCMT:utility.obj
 0004:00000270       $pdata$_onexit             0000000140020270     LIBCMT:utility.obj
 0004:0000027c       $pdata$atexit              000000014002027c     LIBCMT:utility.obj
 0004:00000288       $pdata$__security_init_cookie 0000000140020288     LIBCMT:gs_support.obj
 0004:00000294       $pdata$__scrt_initialize_default_local_stdio_options 0000000140020294     LIBCMT:default_local_stdio_options.obj
 0004:000002a0       $pdata$__scrt_fastfail     00000001400202a0     LIBCMT:utility_desktop.obj
 0004:000002ac       $pdata$__scrt_get_show_window_mode 00000001400202ac     LIBCMT:utility_desktop.obj
 0004:000002b8       $pdata$__scrt_is_managed_app 00000001400202b8     LIBCMT:utility_desktop.obj
 0004:000002c4       $pdata$__scrt_unhandled_exception_filter 00000001400202c4     LIBCMT:utility_desktop.obj
 0004:000002d0       $pdata$_RTC_Initialize     00000001400202d0     LIBCMT:_initsect_.obj
 0004:000002dc       $pdata$_RTC_Terminate      00000001400202dc     LIBCMT:_initsect_.obj
 0004:000002e8       $pdata$__isa_available_init 00000001400202e8     LIBCMT:_cpu_disp_.obj
 0004:000002f4       $pdata$__telemetry_main_invoke_trigger 00000001400202f4     libvcruntime:telemetry.obj
 0004:00000300       $pdata$__telemetry_main_return_trigger 0000000140020300     libvcruntime:telemetry.obj
 0004:0000030c       $pdata$__vcrt_uninitialize_telemetry_provider 000000014002030c     libvcruntime:telemetry.obj
 0004:00000318       $pdata$__C_specific_handler 0000000140020318     libvcruntime:_chandler_.obj
 0004:00000324       $pdata$__vcrt_initialize   0000000140020324     libvcruntime:initialization.obj
 0004:00000330       $pdata$__vcrt_uninitialize 0000000140020330     libvcruntime:initialization.obj
 0004:00000348       $pdata$?try_get_function@@YAPEAXW4function_id@?A0xece66f1d@@QEBDQEBW4module_id@2@2@Z 0000000140020348     libvcruntime:winapi_downlevel.obj
 0004:00000354       $pdata$__vcrt_EventRegister 0000000140020354     libvcruntime:winapi_downlevel.obj
 0004:00000360       $pdata$__vcrt_EventSetInformation 0000000140020360     libvcruntime:winapi_downlevel.obj
 0004:0000036c       $pdata$__vcrt_EventUnregister 000000014002036c     libvcruntime:winapi_downlevel.obj
 0004:00000378       $pdata$__vcrt_EventWriteTransfer 0000000140020378     libvcruntime:winapi_downlevel.obj
 0004:00000384       $pdata$__vcrt_FlsAlloc     0000000140020384     libvcruntime:winapi_downlevel.obj
 0004:00000390       $pdata$__vcrt_FlsFree      0000000140020390     libvcruntime:winapi_downlevel.obj
 0004:0000039c       $pdata$__vcrt_FlsSetValue  000000014002039c     libvcruntime:winapi_downlevel.obj
 0004:000003a8       $pdata$__vcrt_InitializeCriticalSectionEx 00000001400203a8     libvcruntime:winapi_downlevel.obj
 0004:000003b4       $pdata$__vcrt_initialize_winapi_thunks 00000001400203b4     libvcruntime:winapi_downlevel.obj
 0004:000003c0       $pdata$__vcrt_uninitialize_winapi_thunks 00000001400203c0     libvcruntime:winapi_downlevel.obj
 0004:000003fc       $pdata$__vcrt_freefls      00000001400203fc     libvcruntime:per_thread_data.obj
 0004:00000408       $pdata$__vcrt_initialize_ptd 0000000140020408     libvcruntime:per_thread_data.obj
 0004:00000414       $pdata$__vcrt_uninitialize_ptd 0000000140020414     libvcruntime:per_thread_data.obj
 0004:00000420       $pdata$__vcrt_initialize_locks 0000000140020420     libvcruntime:locks.obj
 0004:0000042c       $pdata$__vcrt_uninitialize_locks 000000014002042c     libvcruntime:locks.obj
 0004:00000438       $pdata$??$common_vsprintf@Vformat_validation_base@__crt_stdio_output@@D@@YAH_KQEAD0QEBDQEAU__crt_locale_pointers@@1@Z 0000000140020438     libucrt:output.obj
 0004:00000444       $pdata$??$ensure_buffer_is_big_enough@D@formatting_buffer@__crt_stdio_output@@QEAA_N_K@Z 0000000140020444     libucrt:output.obj
 0004:00000450       $pdata$??$type_case_integer_parse_into_buffer@I@?$output_processor@DV?$string_output_adapter@D@__crt_stdio_output@@V?$format_validation_base@DV?$string_output_adapter@D@__crt_stdio_output@@@2@@__crt_stdio_output@@AEAAXII_N@Z 0000000140020450     libucrt:output.obj
 0004:00000450       $pdata$??$type_case_integer_parse_into_buffer@I@?$output_processor@DV?$string_output_adapter@D@__crt_stdio_output@@V?$standard_base@DV?$string_output_adapter@D@__crt_stdio_output@@@2@@__crt_stdio_output@@AEAAXII_N@Z 0000000140020450     libucrt:output.obj
 0004:0000045c       $pdata$??$type_case_integer_parse_into_buffer@_K@?$output_processor@DV?$string_output_adapter@D@__crt_stdio_output@@V?$format_validation_base@DV?$string_output_adapter@D@__crt_stdio_output@@@2@@__crt_stdio_output@@AEAAX_KI_N@Z 000000014002045c     libucrt:output.obj
 0004:0000045c       $pdata$??$type_case_integer_parse_into_buffer@_K@?$output_processor@DV?$string_output_adapter@D@__crt_stdio_output@@V?$standard_base@DV?$string_output_adapter@D@__crt_stdio_output@@@2@@__crt_stdio_output@@AEAAX_KI_N@Z 000000014002045c     libucrt:output.obj
 0004:00000468       $pdata$??$write_multiple_characters@V?$string_output_adapter@D@__crt_stdio_output@@D@__crt_stdio_output@@YAXAEBV?$string_output_adapter@D@0@DHQEAH@Z 0000000140020468     libucrt:output.obj
 0004:00000474       $pdata$??0?$output_processor@DV?$string_output_adapter@D@__crt_stdio_output@@V?$format_validation_base@DV?$string_output_adapter@D@__crt_stdio_output@@@2@@__crt_stdio_output@@QEAA@AEBV?$string_output_adapter@D@1@_KQEBDQEAU__crt_locale_pointers@@QEAD@Z 0000000140020474     libucrt:output.obj
 0004:00000474       $pdata$??0?$output_processor@DV?$string_output_adapter@D@__crt_stdio_output@@V?$standard_base@DV?$string_output_adapter@D@__crt_stdio_output@@@2@@__crt_stdio_output@@QEAA@AEBV?$string_output_adapter@D@1@_KQEBDQEAU__crt_locale_pointers@@QEAD@Z 0000000140020474     libucrt:output.obj
 0004:00000480       $pdata$??0_LocaleUpdate@@QEAA@QEAU__crt_locale_pointers@@@Z 0000000140020480     libucrt:output.obj
 0004:0000048c       $pdata$?force_decimal_point@__crt_stdio_output@@YAXPEADQEAU__crt_locale_pointers@@@Z 000000014002048c     libucrt:output.obj
 0004:00000498       $pdata$?parse_int_from_format_string@?$output_processor@DV?$string_output_adapter@D@__crt_stdio_output@@V?$standard_base@DV?$string_output_adapter@D@__crt_stdio_output@@@2@@__crt_stdio_output@@AEAA_NQEAH@Z 0000000140020498     libucrt:output.obj
 0004:00000498       $pdata$?parse_int_from_format_string@?$output_processor@DV?$string_output_adapter@D@__crt_stdio_output@@V?$format_validation_base@DV?$string_output_adapter@D@__crt_stdio_output@@@2@@__crt_stdio_output@@AEAA_NQEAH@Z 0000000140020498     libucrt:output.obj
 0004:000004a4       $pdata$?process@?$output_processor@DV?$string_output_adapter@D@__crt_stdio_output@@V?$format_validation_base@DV?$string_output_adapter@D@__crt_stdio_output@@@2@@__crt_stdio_output@@QEAAHXZ 00000001400204a4     libucrt:output.obj
 0004:000004b0       $pdata$?process@?$output_processor@DV?$string_output_adapter@D@__crt_stdio_output@@V?$standard_base@DV?$string_output_adapter@D@__crt_stdio_output@@@2@@__crt_stdio_output@@QEAAHXZ 00000001400204b0     libucrt:output.obj
 0004:000004bc       $pdata$?state_case_normal@?$output_processor@DV?$string_output_adapter@D@__crt_stdio_output@@V?$format_validation_base@DV?$string_output_adapter@D@__crt_stdio_output@@@2@@__crt_stdio_output@@AEAA_NXZ 00000001400204bc     libucrt:output.obj
 0004:000004bc       $pdata$?state_case_normal@?$output_processor@DV?$string_output_adapter@D@__crt_stdio_output@@V?$standard_base@DV?$string_output_adapter@D@__crt_stdio_output@@@2@@__crt_stdio_output@@AEAA_NXZ 00000001400204bc     libucrt:output.obj
 0004:000004c8       $pdata$?state_case_normal_tchar@?$output_processor@DV?$string_output_adapter@D@__crt_stdio_output@@V?$standard_base@DV?$string_output_adapter@D@__crt_stdio_output@@@2@@__crt_stdio_output@@AEAA_ND@Z 00000001400204c8     libucrt:output.obj
 0004:000004c8       $pdata$?state_case_normal_tchar@?$output_processor@DV?$string_output_adapter@D@__crt_stdio_output@@V?$format_validation_base@DV?$string_output_adapter@D@__crt_stdio_output@@@2@@__crt_stdio_output@@AEAA_ND@Z 00000001400204c8     libucrt:output.obj
 0004:000004d4       $pdata$?state_case_size@?$output_processor@DV?$string_output_adapter@D@__crt_stdio_output@@V?$format_validation_base@DV?$string_output_adapter@D@__crt_stdio_output@@@2@@__crt_stdio_output@@AEAA_NXZ 00000001400204d4     libucrt:output.obj
 0004:000004d4       $pdata$?state_case_size@?$output_processor@DV?$string_output_adapter@D@__crt_stdio_output@@V?$standard_base@DV?$string_output_adapter@D@__crt_stdio_output@@@2@@__crt_stdio_output@@AEAA_NXZ 00000001400204d4     libucrt:output.obj
 0004:000004e0       $pdata$?state_case_type@?$output_processor@DV?$string_output_adapter@D@__crt_stdio_output@@V?$standard_base@DV?$string_output_adapter@D@__crt_stdio_output@@@2@@__crt_stdio_output@@AEAA_NXZ 00000001400204e0     libucrt:output.obj
 0004:000004e0       $pdata$?state_case_type@?$output_processor@DV?$string_output_adapter@D@__crt_stdio_output@@V?$format_validation_base@DV?$string_output_adapter@D@__crt_stdio_output@@@2@@__crt_stdio_output@@AEAA_NXZ 00000001400204e0     libucrt:output.obj
 0004:000004ec       $pdata$?type_case_Z@?$output_processor@DV?$string_output_adapter@D@__crt_stdio_output@@V?$format_validation_base@DV?$string_output_adapter@D@__crt_stdio_output@@@2@@__crt_stdio_output@@AEAA_NXZ 00000001400204ec     libucrt:output.obj
 0004:000004ec       $pdata$?type_case_Z@?$output_processor@DV?$string_output_adapter@D@__crt_stdio_output@@V?$standard_base@DV?$string_output_adapter@D@__crt_stdio_output@@@2@@__crt_stdio_output@@AEAA_NXZ 00000001400204ec     libucrt:output.obj
 0004:000004f8       $pdata$?type_case_a@?$output_processor@DV?$string_output_adapter@D@__crt_stdio_output@@V?$format_validation_base@DV?$string_output_adapter@D@__crt_stdio_output@@@2@@__crt_stdio_output@@AEAA_NXZ 00000001400204f8     libucrt:output.obj
 0004:000004f8       $pdata$?type_case_a@?$output_processor@DV?$string_output_adapter@D@__crt_stdio_output@@V?$standard_base@DV?$string_output_adapter@D@__crt_stdio_output@@@2@@__crt_stdio_output@@AEAA_NXZ 00000001400204f8     libucrt:output.obj
 0004:00000504       $pdata$?type_case_c_tchar@?$output_processor@DV?$string_output_adapter@D@__crt_stdio_output@@V?$standard_base@DV?$string_output_adapter@D@__crt_stdio_output@@@2@@__crt_stdio_output@@AEAA_ND@Z 0000000140020504     libucrt:output.obj
 0004:00000504       $pdata$?type_case_c_tchar@?$output_processor@DV?$string_output_adapter@D@__crt_stdio_output@@V?$format_validation_base@DV?$string_output_adapter@D@__crt_stdio_output@@@2@@__crt_stdio_output@@AEAA_ND@Z 0000000140020504     libucrt:output.obj
 0004:00000510       $pdata$?type_case_integer@?$output_processor@DV?$string_output_adapter@D@__crt_stdio_output@@V?$standard_base@DV?$string_output_adapter@D@__crt_stdio_output@@@2@@__crt_stdio_output@@AEAA_NI_N@Z 0000000140020510     libucrt:output.obj
 0004:00000510       $pdata$?type_case_integer@?$output_processor@DV?$string_output_adapter@D@__crt_stdio_output@@V?$format_validation_base@DV?$string_output_adapter@D@__crt_stdio_output@@@2@@__crt_stdio_output@@AEAA_NI_N@Z 0000000140020510     libucrt:output.obj
 0004:0000051c       $pdata$?type_case_n@?$output_processor@DV?$string_output_adapter@D@__crt_stdio_output@@V?$standard_base@DV?$string_output_adapter@D@__crt_stdio_output@@@2@@__crt_stdio_output@@AEAA_NXZ 000000014002051c     libucrt:output.obj
 0004:0000051c       $pdata$?type_case_n@?$output_processor@DV?$string_output_adapter@D@__crt_stdio_output@@V?$format_validation_base@DV?$string_output_adapter@D@__crt_stdio_output@@@2@@__crt_stdio_output@@AEAA_NXZ 000000014002051c     libucrt:output.obj
 0004:00000528       $pdata$?type_case_s@?$output_processor@DV?$string_output_adapter@D@__crt_stdio_output@@V?$format_validation_base@DV?$string_output_adapter@D@__crt_stdio_output@@@2@@__crt_stdio_output@@AEAA_NXZ 0000000140020528     libucrt:output.obj
 0004:00000528       $pdata$?type_case_s@?$output_processor@DV?$string_output_adapter@D@__crt_stdio_output@@V?$standard_base@DV?$string_output_adapter@D@__crt_stdio_output@@@2@@__crt_stdio_output@@AEAA_NXZ 0000000140020528     libucrt:output.obj
 0004:00000534       $pdata$?write_stored_string_tchar@?$output_processor@DV?$string_output_adapter@D@__crt_stdio_output@@V?$format_validation_base@DV?$string_output_adapter@D@__crt_stdio_output@@@2@@__crt_stdio_output@@AEAA_ND@Z 0000000140020534     libucrt:output.obj
 0004:00000534       $pdata$?write_stored_string_tchar@?$output_processor@DV?$string_output_adapter@D@__crt_stdio_output@@V?$standard_base@DV?$string_output_adapter@D@__crt_stdio_output@@@2@@__crt_stdio_output@@AEAA_ND@Z 0000000140020534     libucrt:output.obj
 0004:00000540       $pdata$?write_string@?$string_output_adapter@D@__crt_stdio_output@@QEBAXQEBDHQEAH1@Z 0000000140020540     libucrt:output.obj
 0004:0000054c       $pdata$__stdio_common_vsnprintf_s 000000014002054c     libucrt:output.obj
 0004:00000558       $pdata$__stdio_common_vsprintf 0000000140020558     libucrt:output.obj
 0004:00000564       $pdata$_seh_filter_exe     0000000140020564     libucrt:exception_filter.obj
 0004:00000570       $pdata$__acrt_invoke_user_matherr 0000000140020570     libucrt:matherr.obj
 0004:0000057c       $pdata$??$parse_command_line@D@@YAXPEADPEAPEAD0PEA_K2@Z 000000014002057c     libucrt:argv_parsing.obj
 0004:00000588       $pdata$__acrt_allocate_buffer_for_argv 0000000140020588     libucrt:argv_parsing.obj
 0004:00000594       $pdata$_configure_narrow_argv 0000000140020594     libucrt:argv_parsing.obj
 0004:000005a0       $pdata$??$common_initialize_environment_nolock@D@@YAHXZ 00000001400205a0     libucrt:environment_initialization.obj
 0004:000005ac       $pdata$??$create_environment@D@@YAQEAPEADQEAD@Z 00000001400205ac     libucrt:environment_initialization.obj
 0004:000005b8       $pdata$??$free_environment@_W@@YAXQEAPEA_W@Z 00000001400205b8     libucrt:environment_initialization.obj
 0004:000005b8       $pdata$??$free_environment@D@@YAXQEAPEAD@Z 00000001400205b8     libucrt:environment_initialization.obj
 0004:000005c4       $pdata$??$uninitialize_environment_internal@D@@YAXAEAPEAPEAD@Z 00000001400205c4     libucrt:environment_initialization.obj
 0004:000005d0       $pdata$??$uninitialize_environment_internal@_W@@YAXAEAPEAPEA_W@Z 00000001400205d0     libucrt:environment_initialization.obj
 0004:000005dc       $pdata$__dcrt_uninitialize_environments_nolock 00000001400205dc     libucrt:environment_initialization.obj
 0004:000005e8       $pdata$_get_narrow_winmain_command_line 00000001400205e8     libucrt:argv_winmain.obj
 0004:000005f4       $pdata$_initterm           00000001400205f4     libucrt:initterm.obj
 0004:00000600       $pdata$_initterm_e         0000000140020600     libucrt:initterm.obj
 0004:0000060c       $pdata$?common_exit@@YAXHW4_crt_exit_cleanup_mode@@W4_crt_exit_return_mode@@@Z 000000014002060c     libucrt:exit.obj
 0004:00000618       $pdata$?exit_or_terminate_process@@YAXI@Z 0000000140020618     libucrt:exit.obj
 0004:00000624       $pdata$?try_cor_exit_process@@YAXI@Z 0000000140020624     libucrt:exit.obj
 0004:00000630       $pdata$_register_thread_local_exe_atexit_callback 0000000140020630     libucrt:exit.obj
 0004:0000063c       $pdata$_set_fmode          000000014002063c     libucrt:setmode.obj
 0004:00000648       $pdata$__acrt_uninitialize_locale 0000000140020648     libucrt:wsetlocale.obj
 0004:00000654       $pdata$_configthreadlocale 0000000140020654     libucrt:wsetlocale.obj
 0004:00000660       $pdata$_set_new_mode       0000000140020660     libucrt:new_mode.obj
 0004:0000066c       $pdata$??$?RV<lambda_b8c45f8f788dd370798f47cfe8ac3a86>@@AEAV<lambda_4e60a939b0d047cfe11ddc22648dfba9>@@V<lambda_332c3edc96d0294ec56c57d38c1cdfd5>@@@?$__crt_seh_guarded_call@H@@QEAAH$$QEAV<lambda_b8c45f8f788dd370798f47cfe8ac3a86>@@AEAV<lambda_4e60a939b0d047cfe11ddc22648dfba9>@@$$QEAV<lambda_332c3edc96d0294ec56c57d38c1cdfd5>@@@Z 000000014002066c     libucrt:onexit.obj
 0004:00000678       $pdata$??$?RV<lambda_e24bbb7b643b32fcea6fa61b31d4c984>@@AEAV<lambda_275893d493268fdec8709772e3fcec0e>@@V<lambda_9d71df4d7cf3f480f8d633942495c3b0>@@@?$__crt_seh_guarded_call@H@@QEAAH$$QEAV<lambda_e24bbb7b643b32fcea6fa61b31d4c984>@@AEAV<lambda_275893d493268fdec8709772e3fcec0e>@@$$QEAV<lambda_9d71df4d7cf3f480f8d633942495c3b0>@@@Z 0000000140020678     libucrt:onexit.obj
 0004:00000684       $pdata$??R<lambda_4e60a939b0d047cfe11ddc22648dfba9>@@QEBAHXZ 0000000140020684     libucrt:onexit.obj
 0004:00000690       $pdata$_execute_onexit_table 0000000140020690     libucrt:onexit.obj
 0004:0000069c       $pdata$_register_onexit_function 000000014002069c     libucrt:onexit.obj
 0004:000006a8       $pdata$initialize_c        00000001400206a8     libucrt:initialization.obj
 0004:000006b4       $pdata$uninitialize_environment 00000001400206b4     libucrt:initialization.obj
 0004:000006c0       $pdata$initialize_pointers 00000001400206c0     libucrt:initialization.obj
 0004:000006cc       $pdata$uninitialize_allocated_memory 00000001400206cc     libucrt:initialization.obj
 0004:000006d8       $pdata$terminate           00000001400206d8     libucrt:terminate.obj
 0004:000006e4       $pdata$_free_base          00000001400206e4     libucrt:free_base.obj
 0004:000006f0       $pdata$_malloc_base        00000001400206f0     libucrt:malloc_base.obj
 0004:000006fc       $pdata$strcpy_s            00000001400206fc     libucrt:strcpy_s.obj
 0004:00000708       $pdata$abort               0000000140020708     libucrt:abort.obj
 0004:00000714       $pdata$_calloc_base        0000000140020714     libucrt:calloc_base.obj
 0004:00000720       $pdata$??$parse_integer@KV?$c_string_character_source@D@__crt_strtox@@@__crt_strtox@@YAKQEAU__crt_locale_pointers@@V?$c_string_character_source@D@0@H_N@Z 0000000140020720     libucrt:atox.obj
 0004:0000072c       $pdata$__acrt_call_reportfault 000000014002072c     libucrt:invalid_parameter.obj
 0004:00000738       $pdata$_invalid_parameter  0000000140020738     libucrt:invalid_parameter.obj
 0004:00000744       $pdata$_invalid_parameter_noinfo 0000000140020744     libucrt:invalid_parameter.obj
 0004:00000750       $pdata$_invoke_watson      0000000140020750     libucrt:invalid_parameter.obj
 0004:0000075c       $pdata$isdigit             000000014002075c     libucrt:_ctype.obj
 0004:00000768       $pdata$?internal_isupper_l@@YA_NHQEAU__crt_locale_pointers@@@Z 0000000140020768     libucrt:tolower_toupper.obj
 0004:00000774       $pdata$_tolower_l          0000000140020774     libucrt:tolower_toupper.obj
 0004:00000780       $pdata$tolower             0000000140020780     libucrt:tolower_toupper.obj
 0004:0000078c       $pdata$__acrt_errno_map_os_error 000000014002078c     libucrt:errno.obj
 0004:00000798       $pdata$__doserrno          0000000140020798     libucrt:errno.obj
 0004:000007a4       $pdata$_errno              00000001400207a4     libucrt:errno.obj
 0004:000007b0       $pdata$strtol              00000001400207b0     libucrt:strtox.obj
 0004:000007bc       $pdata$_mbtowc_l           00000001400207bc     libucrt:mbtowc.obj
 0004:000007c8       $pdata$_wctomb_s_l         00000001400207c8     libucrt:wctomb.obj
 0004:000007d4       $pdata$wctomb_s            00000001400207d4     libucrt:wctomb.obj
 0004:000007e0       $pdata$strnlen             00000001400207e0     libucrt:strnlen.obj
 0004:000007ec       $pdata$wcsnlen             00000001400207ec     libucrt:strnlen.obj
 0004:000007f8       $pdata$??$?RV<lambda_46352004c1216016012b18bd6f87e700>@@AEAV<lambda_3bd07e1a1191394380780325891bf33f>@@V<lambda_334532d3f185bcaa59b5be82d7d22bff>@@@?$__crt_seh_guarded_call@X@@QEAAX$$QEAV<lambda_46352004c1216016012b18bd6f87e700>@@AEAV<lambda_3bd07e1a1191394380780325891bf33f>@@$$QEAV<lambda_334532d3f185bcaa59b5be82d7d22bff>@@@Z 00000001400207f8     libucrt:per_thread_data.obj
 0004:00000804       $pdata$??$?RV<lambda_5e887d1dcbef67a5eb4283622ba103bf>@@AEAV<lambda_4466841279450cc726390878d4a41900>@@V<lambda_341c25c0346d94847f1f3c463c57e077>@@@?$__crt_seh_guarded_call@X@@QEAAX$$QEAV<lambda_5e887d1dcbef67a5eb4283622ba103bf>@@AEAV<lambda_4466841279450cc726390878d4a41900>@@$$QEAV<lambda_341c25c0346d94847f1f3c463c57e077>@@@Z 0000000140020804     libucrt:per_thread_data.obj
 0004:00000810       $pdata$??$?RV<lambda_72d1df2b273a38828b1ce30cbf4cdab5>@@AEAV<lambda_876a65b173b8412d3a47c70a915b0cf4>@@V<lambda_41932305e351933ebe8f8be3ed8bb5dc>@@@?$__crt_seh_guarded_call@X@@QEAAX$$QEAV<lambda_72d1df2b273a38828b1ce30cbf4cdab5>@@AEAV<lambda_876a65b173b8412d3a47c70a915b0cf4>@@$$QEAV<lambda_41932305e351933ebe8f8be3ed8bb5dc>@@@Z 0000000140020810     libucrt:per_thread_data.obj
 0004:0000081c       $pdata$??$?RV<lambda_fb3a7dec4e47f37f22dae91bb15c9095>@@AEAV<lambda_698284760c8add0bfb0756c19673e34b>@@V<lambda_dfb8eca1e75fef3034a8fb18dd509707>@@@?$__crt_seh_guarded_call@X@@QEAAX$$QEAV<lambda_fb3a7dec4e47f37f22dae91bb15c9095>@@AEAV<lambda_698284760c8add0bfb0756c19673e34b>@@$$QEAV<lambda_dfb8eca1e75fef3034a8fb18dd509707>@@@Z 000000014002081c     libucrt:per_thread_data.obj
 0004:00000828       $pdata$?construct_ptd_array@@YAXQEAU__acrt_ptd@@@Z 0000000140020828     libucrt:per_thread_data.obj
 0004:00000834       $pdata$?destroy_fls@@YAXPEAX@Z 0000000140020834     libucrt:per_thread_data.obj
 0004:00000840       $pdata$?destroy_ptd_array@@YAXQEAU__acrt_ptd@@@Z 0000000140020840     libucrt:per_thread_data.obj
 0004:0000084c       $pdata$?replace_current_thread_locale_nolock@@YAXQEAU__acrt_ptd@@QEAU__crt_locale_data@@@Z 000000014002084c     libucrt:per_thread_data.obj
 0004:00000858       $pdata$__acrt_getptd       0000000140020858     libucrt:per_thread_data.obj
 0004:00000864       $pdata$__acrt_getptd_noexit 0000000140020864     libucrt:per_thread_data.obj
 0004:00000870       $pdata$__acrt_initialize_ptd 0000000140020870     libucrt:per_thread_data.obj
 0004:0000087c       $pdata$__acrt_uninitialize_ptd 000000014002087c     libucrt:per_thread_data.obj
 0004:00000888       $pdata$__acrt_update_locale_info 0000000140020888     libucrt:locale_update.obj
 0004:00000894       $pdata$__acrt_update_multibyte_info 0000000140020894     libucrt:locale_update.obj
 0004:000008a0       $pdata$?fp_format_a@@YAHQEBNPEAD_KQEAD2H_NIQEAU__crt_locale_pointers@@@Z 00000001400208a0     libucrt:cvt.obj
 0004:000008ac       $pdata$?fp_format_e@@YAHQEBNQEAD_K12H_NIQEAU__crt_locale_pointers@@@Z 00000001400208ac     libucrt:cvt.obj
 0004:000008b8       $pdata$?fp_format_e_internal@@YAHQEAD_KH_NIQEAU_strflt@@2QEAU__crt_locale_pointers@@@Z 00000001400208b8     libucrt:cvt.obj
 0004:000008c4       $pdata$?fp_format_f_internal@@YAHQEAD_KHQEAU_strflt@@_NQEAU__crt_locale_pointers@@@Z 00000001400208c4     libucrt:cvt.obj
 0004:000008d0       $pdata$?fp_format_g@@YAHQEBNQEAD_K12H_NIQEAU__crt_locale_pointers@@@Z 00000001400208d0     libucrt:cvt.obj
 0004:000008dc       $pdata$?fp_format_nan_or_infinity@@YAHW4__acrt_fp_class@@_NPEAD_K1@Z 00000001400208dc     libucrt:cvt.obj
 0004:000008e8       $pdata$__acrt_fp_format    00000001400208e8     libucrt:cvt.obj
 0004:000008f4       $pdata$_fileno             00000001400208f4     libucrt:fileno.obj
 0004:00000900       $pdata$__acrt_initialize_stdio 0000000140020900     libucrt:_file.obj
 0004:0000090c       $pdata$__acrt_uninitialize_stdio 000000014002090c     libucrt:_file.obj
 0004:00000918       $pdata$?initialize_inherited_file_handles_nolock@@YAXXZ 0000000140020918     libucrt:ioinit.obj
 0004:00000924       $pdata$?initialize_stdio_handles_nolock@@YAXXZ 0000000140020924     libucrt:ioinit.obj
 0004:00000930       $pdata$__acrt_initialize_lowio 0000000140020930     libucrt:ioinit.obj
 0004:0000093c       $pdata$__acrt_uninitialize_lowio 000000014002093c     libucrt:ioinit.obj
 0004:00000948       $pdata$??$common_expand_argv_wildcards@D@@YAHQEAPEADQEAPEAPEAD@Z 0000000140020948     libucrt:argv_wildcards.obj
 0004:00000954       $pdata$??$copy_and_add_argument_to_buffer@D@@YAHQEBD0_KAEAV?$argument_list@D@?A0x7b96f60e@@@Z 0000000140020954     libucrt:argv_wildcards.obj
 0004:00000960       $pdata$??$expand_argument_wildcards@D@@YAHQEAD0AEAV?$argument_list@D@?A0x7b96f60e@@@Z 0000000140020960     libucrt:argv_wildcards.obj
 0004:0000096c       $pdata$?expand_if_necessary@?$argument_list@D@?A0x7b96f60e@@AEAAHXZ 000000014002096c     libucrt:argv_wildcards.obj
 0004:00000978       $pdata$??$?RV<lambda_99476a1ad63dd22509b5d3e65b0ffc95>@@AEAV<lambda_ad1ced32f4ac17aa236e5ef05d6b3b7c>@@V<lambda_f7424dd8d45958661754dc4f2697e9c3>@@@?$__crt_seh_guarded_call@X@@QEAAX$$QEAV<lambda_99476a1ad63dd22509b5d3e65b0ffc95>@@AEAV<lambda_ad1ced32f4ac17aa236e5ef05d6b3b7c>@@$$QEAV<lambda_f7424dd8d45958661754dc4f2697e9c3>@@@Z 0000000140020978     libucrt:mbctype.obj
 0004:00000984       $pdata$??R<lambda_ad1ced32f4ac17aa236e5ef05d6b3b7c>@@QEBAXXZ 0000000140020984     libucrt:mbctype.obj
 0004:00000990       $pdata$?getSystemCP@@YAHH@Z 0000000140020990     libucrt:mbctype.obj
 0004:0000099c       $pdata$?setSBCS@@YAXPEAU__crt_multibyte_data@@@Z 000000014002099c     libucrt:mbctype.obj
 0004:000009a8       $pdata$?setSBUpLow@@YAXPEAU__crt_multibyte_data@@@Z 00000001400209a8     libucrt:mbctype.obj
 0004:000009b4       $pdata$?setmbcp_internal@@YAHH_N@Z 00000001400209b4     libucrt:mbctype.obj
 0004:000009c0       $pdata$__acrt_initialize_multibyte 00000001400209c0     libucrt:mbctype.obj
 0004:000009cc       $pdata$__acrt_update_thread_multibyte_data 00000001400209cc     libucrt:mbctype.obj
 0004:000009d8       $pdata$_setmbcp_nolock     00000001400209d8     libucrt:mbctype.obj
 0004:000009e4       $pdata$?x_ismbbtype_l@@YAHPEAU__crt_locale_pointers@@IHH@Z 00000001400209e4     libucrt:ismbbyte.obj
 0004:000009f0       $pdata$__acrt_initialize_command_line 00000001400209f0     libucrt:argv_data.obj
 0004:000009fc       $pdata$__dcrt_get_narrow_environment_from_os 00000001400209fc     libucrt:get_environment_from_os.obj
 0004:00000a08       $pdata$__acrt_initialize_locks 0000000140020a08     libucrt:locks.obj
 0004:00000a14       $pdata$__acrt_uninitialize_locks 0000000140020a14     libucrt:locks.obj
 0004:00000a20       $pdata$?try_get_function@@YAPEAXW4function_id@?A0x1dd686d3@@QEBDQEBW4module_id@2@2@Z 0000000140020a20     libucrt:winapi_thunks.obj
 0004:00000a2c       $pdata$__acrt_FlsAlloc     0000000140020a2c     libucrt:winapi_thunks.obj
 0004:00000a38       $pdata$__acrt_FlsFree      0000000140020a38     libucrt:winapi_thunks.obj
 0004:00000a44       $pdata$__acrt_FlsGetValue  0000000140020a44     libucrt:winapi_thunks.obj
 0004:00000a50       $pdata$__acrt_FlsSetValue  0000000140020a50     libucrt:winapi_thunks.obj
 0004:00000a5c       $pdata$__acrt_InitializeCriticalSectionEx 0000000140020a5c     libucrt:winapi_thunks.obj
 0004:00000a68       $pdata$__acrt_LCMapStringEx 0000000140020a68     libucrt:winapi_thunks.obj
 0004:00000a74       $pdata$__acrt_LocaleNameToLCID 0000000140020a74     libucrt:winapi_thunks.obj
 0004:00000a80       $pdata$__acrt_initialize_winapi_thunks 0000000140020a80     libucrt:winapi_thunks.obj
 0004:00000a8c       $pdata$__acrt_is_packaged_app 0000000140020a8c     libucrt:winapi_thunks.obj
 0004:00000a98       $pdata$__acrt_uninitialize_winapi_thunks 0000000140020a98     libucrt:winapi_thunks.obj
 0004:00000aa4       $pdata$__acrt_lowio_create_handle_array 0000000140020aa4     libucrt:osfinfo.obj
 0004:00000ab0       $pdata$__acrt_lowio_destroy_handle_array 0000000140020ab0     libucrt:osfinfo.obj
 0004:00000abc       $pdata$__acrt_lowio_ensure_fh_exists 0000000140020abc     libucrt:osfinfo.obj
 0004:00000ac8       $pdata$_free_osfhnd        0000000140020ac8     libucrt:osfinfo.obj
 0004:00000ad4       $pdata$_get_osfhandle      0000000140020ad4     libucrt:osfinfo.obj
 0004:00000ae0       $pdata$__acrt_locale_free_monetary 0000000140020ae0     libucrt:initmon.obj
 0004:00000aec       $pdata$__acrt_locale_free_numeric 0000000140020aec     libucrt:initnum.obj
 0004:00000af8       $pdata$?free_crt_array_internal@@YAXQEAPEBX_K@Z 0000000140020af8     libucrt:inittime.obj
 0004:00000b04       $pdata$__acrt_locale_free_time 0000000140020b04     libucrt:inittime.obj
 0004:00000b10       $pdata$__pctype_func       0000000140020b10     libucrt:ctype.obj
 0004:00000b1c       $pdata$__acrt_GetStringTypeA 0000000140020b1c     libucrt:getstringtypea.obj
 0004:00000b28       $pdata$__acrt_free_locale  0000000140020b28     libucrt:locale_refcounting.obj
 0004:00000b34       $pdata$__acrt_locale_free_lc_time_if_unreferenced 0000000140020b34     libucrt:locale_refcounting.obj
 0004:00000b40       $pdata$__acrt_release_locale_ref 0000000140020b40     libucrt:locale_refcounting.obj
 0004:00000b4c       $pdata$__acrt_update_thread_locale_data 0000000140020b4c     libucrt:locale_refcounting.obj
 0004:00000b58       $pdata$_updatetlocinfoEx_nolock 0000000140020b58     libucrt:locale_refcounting.obj
 0004:00000b64       $pdata$_recalloc_base      0000000140020b64     libucrt:recalloc.obj
 0004:00000b70       $pdata$__acrt_initialize_heap 0000000140020b70     libucrt:heap_handle.obj
 0004:00000b7c       $pdata$__acrt_execute_initializers 0000000140020b7c     libucrt:shared_initialization.obj
 0004:00000b88       $pdata$__acrt_execute_uninitializers 0000000140020b88     libucrt:shared_initialization.obj
 0004:00000b94       $pdata$_callnewh           0000000140020b94     libucrt:new_handler.obj
 0004:00000ba0       $pdata$_query_new_handler  0000000140020ba0     libucrt:new_handler.obj
 0004:00000bac       $pdata$??$?RV<lambda_c36588078e9f5dfd39652860aa6b3aaf>@@AEAV<lambda_ec61778202f4f5fc7e7711acc23c3bca>@@V<lambda_dc9d2797ccde5d239b4a0efae8ebd7db>@@@?$__crt_seh_guarded_call@P6AXH@Z@@QEAAP6AXH@Z$$QEAV<lambda_c36588078e9f5dfd39652860aa6b3aaf>@@AEAV<lambda_ec61778202f4f5fc7e7711acc23c3bca>@@$$QEAV<lambda_dc9d2797ccde5d239b4a0efae8ebd7db>@@@Z 0000000140020bac     libucrt:signal.obj
 0004:00000bb8       $pdata$__acrt_get_sigabrt_handler 0000000140020bb8     libucrt:signal.obj
 0004:00000bc4       $pdata$raise               0000000140020bc4     libucrt:signal.obj
 0004:00000bd0       $pdata$_isctype_l          0000000140020bd0     libucrt:isctype.obj
 0004:00000bdc       $pdata$_isleadbyte_l       0000000140020bdc     libucrt:_wctype.obj
 0004:00000be8       $pdata$?__acrt_LCMapStringA_stat@@YAHPEAU__crt_locale_pointers@@PEB_WKPEBDHPEADHHH@Z 0000000140020be8     libucrt:lcmapstringa.obj
 0004:00000bf4       $pdata$__acrt_LCMapStringA 0000000140020bf4     libucrt:lcmapstringa.obj
 0004:00000c00       $pdata$__acrt_fp_strflt_to_string 0000000140020c00     libucrt:_fptostr.obj
 0004:00000c0c       $pdata$?divide@__crt_strtox@@YA_KAEAUbig_integer@1@AEBU21@@Z 0000000140020c0c     libucrt:cfout.obj
 0004:00000c18       $pdata$5$?divide@__crt_strtox@@YA_KAEAUbig_integer@1@AEBU21@@Z 0000000140020c18     libucrt:cfout.obj
 0004:00000c24       $pdata$6$?divide@__crt_strtox@@YA_KAEAUbig_integer@1@AEBU21@@Z 0000000140020c24     libucrt:cfout.obj
 0004:00000c30       $pdata$__acrt_fltout       0000000140020c30     libucrt:cfout.obj
 0004:00000c3c       $pdata$memcpy_s            0000000140020c3c     libucrt:cfout.obj
 0004:00000c48       $pdata$_fcloseall          0000000140020c48     libucrt:closeall.obj
 0004:00000c54       $pdata$__acrt_stdio_flush_nolock 0000000140020c54     libucrt:fflush.obj
 0004:00000c60       $pdata$_fflush_nolock      0000000140020c60     libucrt:fflush.obj
 0004:00000c6c       $pdata$common_flush_all    0000000140020c6c     libucrt:fflush.obj
 0004:00000c78       $pdata$__acrt_stdio_free_buffer_nolock 0000000140020c78     libucrt:_freebuf.obj
 0004:00000c84       $pdata$_isatty             0000000140020c84     libucrt:isatty.obj
 0004:00000c90       $pdata$?shortsort@@YAXPEAD0_KP6AHPEBX2@Z@Z 0000000140020c90     libucrt:qsort.obj
 0004:00000c9c       $pdata$2$?shortsort@@YAXPEAD0_KP6AHPEBX2@Z@Z 0000000140020c9c     libucrt:qsort.obj
 0004:00000ca8       $pdata$3$?shortsort@@YAXPEAD0_KP6AHPEBX2@Z@Z 0000000140020ca8     libucrt:qsort.obj
 0004:00000cb4       $pdata$qsort               0000000140020cb4     libucrt:qsort.obj
 0004:00000cc0       $pdata$4$qsort             0000000140020cc0     libucrt:qsort.obj
 0004:00000ccc       $pdata$5$qsort             0000000140020ccc     libucrt:qsort.obj
 0004:00000cd8       $pdata$strncpy_s           0000000140020cd8     libucrt:strncpy_s.obj
 0004:00000ce4       $pdata$strpbrk             0000000140020ce4     libucrt:strpbrk.obj
 0004:00000cf0       $pdata$_mbsdec_l           0000000140020cf0     libucrt:mbsdec.obj
 0004:00000cfc       $pdata$?initialize_multibyte@@YAHXZ 0000000140020cfc     libucrt:multibyte_initializer.obj
 0004:00000d08       $pdata$?GetTableIndexFromLocaleName@@YAHPEB_W@Z 0000000140020d08     libucrt:lcidtoname_downlevel.obj
 0004:00000d14       $pdata$__acrt_DownlevelLocaleNameToLCID 0000000140020d14     libucrt:lcidtoname_downlevel.obj
 0004:00000d20       $pdata$_msize              0000000140020d20     libucrt:msize.obj
 0004:00000d2c       $pdata$_realloc_base       0000000140020d2c     libucrt:realloc_base.obj
 0004:00000d38       $pdata$fegetenv            0000000140020d38     libucrt:fegetenv.obj
 0004:00000d44       $pdata$fesetenv            0000000140020d44     libucrt:fesetenv.obj
 0004:00000d50       $pdata$feholdexcept        0000000140020d50     libucrt:feholdexcept.obj
 0004:00000d68       $pdata$?write_double_translated_ansi_nolock@@YA?AUwrite_result@?A0x4392dfaa@@HQEBDI@Z 0000000140020d68     libucrt:write.obj
 0004:00000d74       $pdata$?write_text_ansi_nolock@@YA?AUwrite_result@?A0x4392dfaa@@HQEBDI@Z 0000000140020d74     libucrt:write.obj
 0004:00000d80       $pdata$?write_text_utf16le_nolock@@YA?AUwrite_result@?A0x4392dfaa@@HQEBDI@Z 0000000140020d80     libucrt:write.obj
 0004:00000d8c       $pdata$?write_text_utf8_nolock@@YA?AUwrite_result@?A0x4392dfaa@@HQEBDI@Z 0000000140020d8c     libucrt:write.obj
 0004:00000d98       $pdata$_write              0000000140020d98     libucrt:write.obj
 0004:00000da4       $pdata$_write_nolock       0000000140020da4     libucrt:write.obj
 0004:00000db0       $pdata$??$common_lseek_nolock@_J@@YA_JH_JH@Z 0000000140020db0     libucrt:lseek.obj
 0004:00000dbc       $pdata$_fclose_nolock      0000000140020dbc     libucrt:fclose.obj
 0004:00000dc8       $pdata$fclose              0000000140020dc8     libucrt:fclose.obj
 0004:00000dd4       $pdata$??$?RV<lambda_b521505b218e5242e90febf6bfebc422>@@AEAV<lambda_6978c1fb23f02e42e1d9e99668cc68aa>@@V<lambda_314360699dd331753a4119843814e9a7>@@@?$__crt_seh_guarded_call@H@@QEAAH$$QEAV<lambda_b521505b218e5242e90febf6bfebc422>@@AEAV<lambda_6978c1fb23f02e42e1d9e99668cc68aa>@@$$QEAV<lambda_314360699dd331753a4119843814e9a7>@@@Z 0000000140020dd4     libucrt:commit.obj
 0004:00000de0       $pdata$_commit             0000000140020de0     libucrt:commit.obj
 0004:00000dec       $pdata$_getfpcontrolword   0000000140020dec     libucrt:_fenvutils.obj
 0004:00000df8       $pdata$_getfpstatusword    0000000140020df8     libucrt:_fenvutils.obj
 0004:00000e04       $pdata$_setfpstatusword    0000000140020e04     libucrt:_fenvutils.obj
 0004:00000e10       $pdata$_clearfp            0000000140020e10     libucrt:ieee.obj
 0004:00000e1c       $pdata$common_control87    0000000140020e1c     libucrt:ieee.obj
 0004:00000e28       $pdata$_call_matherr       0000000140020e28     libucrt:libm_error.obj
 0004:00000e34       $pdata$_exception_enabled  0000000140020e34     libucrt:libm_error.obj
 0004:00000e40       $pdata$_handle_error       0000000140020e40     libucrt:libm_error.obj
 0004:00000e4c       $pdata$__acrt_initialize_fma3 0000000140020e4c     libucrt:fma3_available.obj
 0004:00000e58       $pdata$_log10_special      0000000140020e58     libucrt:log_special.obj
 0004:00000e64       $pdata$_log_special_common 0000000140020e64     libucrt:log_special.obj
 0004:00000e70       $pdata$_putwch_nolock      0000000140020e70     libucrt:putwch.obj
 0004:00000e7c       $pdata$??$?RV<lambda_bfedae4ebbf01fab1bb6dcc6a9e276e0>@@AEAV<lambda_2fe9b910cf3cbf4a0ab98a02ba45b3ec>@@V<lambda_237c231691f317818eb88cc1d5d642d6>@@@?$__crt_seh_guarded_call@H@@QEAAH$$QEAV<lambda_bfedae4ebbf01fab1bb6dcc6a9e276e0>@@AEAV<lambda_2fe9b910cf3cbf4a0ab98a02ba45b3ec>@@$$QEAV<lambda_237c231691f317818eb88cc1d5d642d6>@@@Z 0000000140020e7c     libucrt:close.obj
 0004:00000e88       $pdata$_close              0000000140020e88     libucrt:close.obj
 0004:00000e94       $pdata$_close_nolock       0000000140020e94     libucrt:close.obj
 0004:00000eac       $pdata$_raise_exc          0000000140020eac     libucrt:fpexcept.obj
 0004:00000eb8       $pdata$_raise_exc_ex       0000000140020eb8     libucrt:fpexcept.obj
 0004:00000ec4       $pdata$_set_errno_from_matherr 0000000140020ec4     libucrt:fpexcept.obj
 0004:00000ed0       $pdata$_clrfp              0000000140020ed0     libucrt:fpctrl.obj
 0004:00000edc       $pdata$_ctrlfp             0000000140020edc     libucrt:fpctrl.obj
 0004:00000ee8       $pdata$_set_statfp         0000000140020ee8     libucrt:fpctrl.obj
 0004:00000ef4       $pdata$_statfp             0000000140020ef4     libucrt:fpctrl.obj
 0004:00000f00       $pdata$__dcrt_lowio_initialize_console_output 0000000140020f00     libucrt:initcon.obj
 0004:00000f0c       $pdata$__dcrt_terminate_console_output 0000000140020f0c     libucrt:initcon.obj
 0004:00000f18       $pdata$_IsNonwritableInCurrentImage 0000000140020f18     LIBCMT:pesect.obj
 0004:00000f3c       $pdata$strrchr             0000000140020f3c     libvcruntime:strrchr.obj
 0004:00000f54       $pdata$?filt$0@?0??__scrt_common_main_seh@@YAHXZ@4HA 0000000140020f54     LIBCMT:exe_winmain.obj
 0004:00000f60       $pdata$__scrt_is_nonwritable_in_current_image$filt$0 0000000140020f60     LIBCMT:utility.obj
 0004:00000f6c       $pdata$?filt$0@?0??common_exit@@YAXHW4_crt_exit_cleanup_mode@@W4_crt_exit_return_mode@@@Z@4HA 0000000140020f6c     libucrt:exit.obj
 0004:00000f78       $pdata$?fin$1@?0??common_exit@@YAXHW4_crt_exit_cleanup_mode@@W4_crt_exit_return_mode@@@Z@4HA 0000000140020f78     libucrt:exit.obj
 0004:00000f84       $pdata$__acrt_uninitialize_locale$fin$0 0000000140020f84     libucrt:wsetlocale.obj
 0004:00000f84       $pdata$__acrt_update_thread_locale_data$fin$0 0000000140020f84     libucrt:locale_refcounting.obj
 0004:00000f90       $pdata$?fin$0@?0???$?RV<lambda_e24bbb7b643b32fcea6fa61b31d4c984>@@AEAV<lambda_275893d493268fdec8709772e3fcec0e>@@V<lambda_9d71df4d7cf3f480f8d633942495c3b0>@@@?$__crt_seh_guarded_call@H@@QEAAH$$QEAV<lambda_e24bbb7b643b32fcea6fa61b31d4c984>@@AEAV<lambda_275893d493268fdec8709772e3fcec0e>@@$$QEAV<lambda_9d71df4d7cf3f480f8d633942495c3b0>@@@Z@4HA 0000000140020f90     libucrt:onexit.obj
 0004:00000f9c       $pdata$__acrt_update_thread_multibyte_data$fin$0 0000000140020f9c     libucrt:mbctype.obj
 0004:00000fa8       $pdata$__acrt_initialize_lowio$fin$0 0000000140020fa8     libucrt:ioinit.obj
 0004:00000fa8       $pdata$__acrt_lowio_ensure_fh_exists$fin$0 0000000140020fa8     libucrt:osfinfo.obj
 0004:00000fb4       $pdata$_query_new_handler$fin$0 0000000140020fb4     libucrt:new_handler.obj
 0004:00000fc0       $pdata$?fin$0@?0???$?RV<lambda_fb3a7dec4e47f37f22dae91bb15c9095>@@AEAV<lambda_698284760c8add0bfb0756c19673e34b>@@V<lambda_dfb8eca1e75fef3034a8fb18dd509707>@@@?$__crt_seh_guarded_call@X@@QEAAX$$QEAV<lambda_fb3a7dec4e47f37f22dae91bb15c9095>@@AEAV<lambda_698284760c8add0bfb0756c19673e34b>@@$$QEAV<lambda_dfb8eca1e75fef3034a8fb18dd509707>@@@Z@4HA 0000000140020fc0     libucrt:per_thread_data.obj
 0004:00000fc0       $pdata$?fin$0@?0???$?RV<lambda_c36588078e9f5dfd39652860aa6b3aaf>@@AEAV<lambda_ec61778202f4f5fc7e7711acc23c3bca>@@V<lambda_dc9d2797ccde5d239b4a0efae8ebd7db>@@@?$__crt_seh_guarded_call@P6AXH@Z@@QEAAP6AXH@Z$$QEAV<lambda_c36588078e9f5dfd39652860aa6b3aaf>@@AEAV<lambda_ec61778202f4f5fc7e7711acc23c3bca>@@$$QEAV<lambda_dc9d2797ccde5d239b4a0efae8ebd7db>@@@Z@4HA 0000000140020fc0     libucrt:signal.obj
 0004:00000fc0       $pdata$?fin$0@?0???$?RV<lambda_72d1df2b273a38828b1ce30cbf4cdab5>@@AEAV<lambda_876a65b173b8412d3a47c70a915b0cf4>@@V<lambda_41932305e351933ebe8f8be3ed8bb5dc>@@@?$__crt_seh_guarded_call@X@@QEAAX$$QEAV<lambda_72d1df2b273a38828b1ce30cbf4cdab5>@@AEAV<lambda_876a65b173b8412d3a47c70a915b0cf4>@@$$QEAV<lambda_41932305e351933ebe8f8be3ed8bb5dc>@@@Z@4HA 0000000140020fc0     libucrt:per_thread_data.obj
 0004:00000fc0       $pdata$?fin$0@?0???$?RV<lambda_99476a1ad63dd22509b5d3e65b0ffc95>@@AEAV<lambda_ad1ced32f4ac17aa236e5ef05d6b3b7c>@@V<lambda_f7424dd8d45958661754dc4f2697e9c3>@@@?$__crt_seh_guarded_call@X@@QEAAX$$QEAV<lambda_99476a1ad63dd22509b5d3e65b0ffc95>@@AEAV<lambda_ad1ced32f4ac17aa236e5ef05d6b3b7c>@@$$QEAV<lambda_f7424dd8d45958661754dc4f2697e9c3>@@@Z@4HA 0000000140020fc0     libucrt:mbctype.obj
 0004:00000fc0       $pdata$?fin$0@?0???$?RV<lambda_b8c45f8f788dd370798f47cfe8ac3a86>@@AEAV<lambda_4e60a939b0d047cfe11ddc22648dfba9>@@V<lambda_332c3edc96d0294ec56c57d38c1cdfd5>@@@?$__crt_seh_guarded_call@H@@QEAAH$$QEAV<lambda_b8c45f8f788dd370798f47cfe8ac3a86>@@AEAV<lambda_4e60a939b0d047cfe11ddc22648dfba9>@@$$QEAV<lambda_332c3edc96d0294ec56c57d38c1cdfd5>@@@Z@4HA 0000000140020fc0     libucrt:onexit.obj
 0004:00000fc0       $pdata$?fin$0@?0???$?RV<lambda_46352004c1216016012b18bd6f87e700>@@AEAV<lambda_3bd07e1a1191394380780325891bf33f>@@V<lambda_334532d3f185bcaa59b5be82d7d22bff>@@@?$__crt_seh_guarded_call@X@@QEAAX$$QEAV<lambda_46352004c1216016012b18bd6f87e700>@@AEAV<lambda_3bd07e1a1191394380780325891bf33f>@@$$QEAV<lambda_334532d3f185bcaa59b5be82d7d22bff>@@@Z@4HA 0000000140020fc0     libucrt:per_thread_data.obj
 0004:00000fc0       $pdata$?fin$0@?0???$?RV<lambda_5e887d1dcbef67a5eb4283622ba103bf>@@AEAV<lambda_4466841279450cc726390878d4a41900>@@V<lambda_341c25c0346d94847f1f3c463c57e077>@@@?$__crt_seh_guarded_call@X@@QEAAX$$QEAV<lambda_5e887d1dcbef67a5eb4283622ba103bf>@@AEAV<lambda_4466841279450cc726390878d4a41900>@@$$QEAV<lambda_341c25c0346d94847f1f3c463c57e077>@@@Z@4HA 0000000140020fc0     libucrt:per_thread_data.obj
 0004:00000fcc       $pdata$raise$fin$0         0000000140020fcc     libucrt:signal.obj
 0004:00000fd8       $pdata$_fcloseall$fin$0    0000000140020fd8     libucrt:closeall.obj
 0004:00000fe4       $pdata$common_flush_all$fin$0 0000000140020fe4     libucrt:fflush.obj
 0004:00000ff0       $pdata$common_flush_all$fin$1 0000000140020ff0     libucrt:fflush.obj
 0004:00000ffc       $pdata$_write$fin$0        0000000140020ffc     libucrt:write.obj
 0004:00001008       $pdata$fclose$fin$0        0000000140021008     libucrt:fclose.obj
 0004:00001014       $pdata$?fin$0@?0???$?RV<lambda_b521505b218e5242e90febf6bfebc422>@@AEAV<lambda_6978c1fb23f02e42e1d9e99668cc68aa>@@V<lambda_314360699dd331753a4119843814e9a7>@@@?$__crt_seh_guarded_call@H@@QEAAH$$QEAV<lambda_b521505b218e5242e90febf6bfebc422>@@AEAV<lambda_6978c1fb23f02e42e1d9e99668cc68aa>@@$$QEAV<lambda_314360699dd331753a4119843814e9a7>@@@Z@4HA 0000000140021014     libucrt:commit.obj
 0004:00001014       $pdata$?fin$0@?0???$?RV<lambda_bfedae4ebbf01fab1bb6dcc6a9e276e0>@@AEAV<lambda_2fe9b910cf3cbf4a0ab98a02ba45b3ec>@@V<lambda_237c231691f317818eb88cc1d5d642d6>@@@?$__crt_seh_guarded_call@H@@QEAAH$$QEAV<lambda_bfedae4ebbf01fab1bb6dcc6a9e276e0>@@AEAV<lambda_2fe9b910cf3cbf4a0ab98a02ba45b3ec>@@$$QEAV<lambda_237c231691f317818eb88cc1d5d642d6>@@@Z@4HA 0000000140021014     libucrt:close.obj
 0004:00001020       $pdata$common_control87$filt$0 0000000140021020     libucrt:ieee.obj
 0004:00001020       $pdata$_ctrlfp$filt$0      0000000140021020     libucrt:fpctrl.obj
 0004:0000102c       $pdata$_IsNonwritableInCurrentImage$filt$0 000000014002102c     LIBCMT:pesect.obj
